---
triple:          'arm64-apple-darwin'
binary-path:     DungeonEscape
relocations:
  - { offsetInCU: 0x26, offset: 0x26, size: 0x8, addend: 0x0, symName: __ZN9CharacterC2ERKNSt3__112basic_stringIcNS0_11char_traitsIcEENS0_9allocatorIcEEEEii, symObjAddr: 0x0, symBinAddr: 0x100001FC0, symSize: 0x60 }
  - { offsetInCU: 0x52B4, offset: 0x52B4, size: 0x8, addend: 0x0, symName: __ZN9CharacterC2ERKNSt3__112basic_stringIcNS0_11char_traitsIcEENS0_9allocatorIcEEEEii, symObjAddr: 0x0, symBinAddr: 0x100001FC0, symSize: 0x60 }
  - { offsetInCU: 0x5308, offset: 0x5308, size: 0x8, addend: 0x0, symName: __ZN9Character6attackERS_, symObjAddr: 0x60, symBinAddr: 0x100002020, symSize: 0x2C }
  - { offsetInCU: 0x533C, offset: 0x533C, size: 0x8, addend: 0x0, symName: __ZNK9Character7isAliveEv, symObjAddr: 0x8C, symBinAddr: 0x10000204C, symSize: 0x24 }
  - { offsetInCU: 0x651D, offset: 0xB889, size: 0x8, addend: 0x0, symName: __ZNSt3__124__put_character_sequenceB8ue170006IcNS_11char_traitsIcEEEERNS_13basic_ostreamIT_T0_EES7_PKS4_m, symObjAddr: 0x1CC8, symBinAddr: 0x100003D38, symSize: 0x1EC }
  - { offsetInCU: 0x8370, offset: 0xD6DC, size: 0x8, addend: 0x0, symName: __ZNSt3__1lsB8ue170006IcNS_11char_traitsIcEENS_9allocatorIcEEEERNS_13basic_ostreamIT_T0_EES9_RKNS_12basic_stringIS6_S7_T1_EE, symObjAddr: 0x5C4, symBinAddr: 0x100002634, symSize: 0x4C }
  - { offsetInCU: 0x83C8, offset: 0xD734, size: 0x8, addend: 0x0, symName: __ZNSt3__14endlB8ue170006IcNS_11char_traitsIcEEEERNS_13basic_ostreamIT_T0_EES7_, symObjAddr: 0x63C, symBinAddr: 0x1000026AC, symSize: 0x58 }
  - { offsetInCU: 0x8408, offset: 0xD774, size: 0x8, addend: 0x0, symName: __ZNSt3__1lsB8ue170006INS_11char_traitsIcEEEERNS_13basic_ostreamIcT_EES6_PKc, symObjAddr: 0x694, symBinAddr: 0x100002704, symSize: 0x48 }
  - { offsetInCU: 0x844E, offset: 0xD7BA, size: 0x8, addend: 0x0, symName: __ZNSt3__1rsB8ue170006IcNS_11char_traitsIcEENS_9allocatorIcEEEERNS_13basic_istreamIT_T0_EES9_RNS_12basic_stringIS6_S7_T1_EE, symObjAddr: 0x708, symBinAddr: 0x100002778, symSize: 0x30C }
  - { offsetInCU: 0x851B, offset: 0xD887, size: 0x8, addend: 0x0, symName: __ZNSt3__1eqB8ue170006IcNS_11char_traitsIcEENS_9allocatorIcEEEEbRKNS_12basic_stringIT_T0_T1_EEPKS6_, symObjAddr: 0xA14, symBinAddr: 0x100002A84, symSize: 0xAC }
  - { offsetInCU: 0x860F, offset: 0xD97B, size: 0x8, addend: 0x0, symName: __ZNSt3__119__libcpp_deallocateB8ue170006EPvmm, symObjAddr: 0xFE4, symBinAddr: 0x100003054, symSize: 0x30 }
  - { offsetInCU: 0x8657, offset: 0xD9C3, size: 0x8, addend: 0x0, symName: __ZNSt3__127__do_deallocate_handle_sizeB8ue170006IJEEEvPvmDpT_, symObjAddr: 0x1014, symBinAddr: 0x100003084, symSize: 0x28 }
  - { offsetInCU: 0x8695, offset: 0xDA01, size: 0x8, addend: 0x0, symName: __ZNSt3__124__libcpp_operator_deleteB8ue170006IJPvEEEvDpT_, symObjAddr: 0x103C, symBinAddr: 0x1000030AC, symSize: 0x24 }
  - { offsetInCU: 0x86FD, offset: 0xDA69, size: 0x8, addend: 0x0, symName: __ZNSt3__112__to_addressB8ue170006I7MonsterEEPT_S3_, symObjAddr: 0x1450, symBinAddr: 0x1000034C0, symSize: 0x14 }
  - { offsetInCU: 0x8732, offset: 0xDA9E, size: 0x8, addend: 0x0, symName: __ZNSt3__112__to_addressB8ue170006I4ItemEEPT_S3_, symObjAddr: 0x1950, symBinAddr: 0x1000039C0, symSize: 0x14 }
  - { offsetInCU: 0x8767, offset: 0xDAD3, size: 0x8, addend: 0x0, symName: __ZNSt3__118__constexpr_strlenB8ue170006EPKc, symObjAddr: 0x1CA4, symBinAddr: 0x100003D14, symSize: 0x24 }
  - { offsetInCU: 0x8793, offset: 0xDAFF, size: 0x8, addend: 0x0, symName: __ZNSt3__116__pad_and_outputB8ue170006IcNS_11char_traitsIcEEEENS_19ostreambuf_iteratorIT_T0_EES6_PKS4_S8_S8_RNS_8ios_baseES4_, symObjAddr: 0x1F4C, symBinAddr: 0x100003FBC, symSize: 0x240 }
  - { offsetInCU: 0x8862, offset: 0xDBCE, size: 0x8, addend: 0x0, symName: __ZNSt3__19use_facetB8ue170006INS_5ctypeIcEEEERKT_RKNS_6localeE, symObjAddr: 0x24D8, symBinAddr: 0x100004548, symSize: 0x2C }
  - { offsetInCU: 0x8C40, offset: 0xDFAC, size: 0x8, addend: 0x0, symName: __ZNSt3__112__to_addressB8ue170006IKcEEPT_S3_, symObjAddr: 0x2570, symBinAddr: 0x1000045E0, symSize: 0x14 }
  - { offsetInCU: 0xC024, offset: 0x11390, size: 0x8, addend: 0x0, symName: _main, symObjAddr: 0x0, symBinAddr: 0x100002070, symSize: 0x590 }
  - { offsetInCU: 0xC0C0, offset: 0x1142C, size: 0x8, addend: 0x0, symName: __ZNSt3__112basic_stringIcNS_11char_traitsIcEENS_9allocatorIcEEEC1B8ue170006ILi0EEEPKc, symObjAddr: 0x590, symBinAddr: 0x100002600, symSize: 0x34 }
  - { offsetInCU: 0xC0FF, offset: 0x1146B, size: 0x8, addend: 0x0, symName: __ZNSt3__113basic_ostreamIcNS_11char_traitsIcEEElsB8ue170006EPFRS3_S4_E, symObjAddr: 0x610, symBinAddr: 0x100002680, symSize: 0x2C }
  - { offsetInCU: 0xC131, offset: 0x1149D, size: 0x8, addend: 0x0, symName: __ZNSt3__112basic_stringIcNS_11char_traitsIcEENS_9allocatorIcEEEC1B8ue170006Ev, symObjAddr: 0x6DC, symBinAddr: 0x10000274C, symSize: 0x2C }
  - { offsetInCU: 0xC15B, offset: 0x114C7, size: 0x8, addend: 0x0, symName: __ZN4ItemD1Ev, symObjAddr: 0xAC0, symBinAddr: 0x100002B30, symSize: 0x2C }
  - { offsetInCU: 0xC185, offset: 0x114F1, size: 0x8, addend: 0x0, symName: __ZN7MonsterD1Ev, symObjAddr: 0xAEC, symBinAddr: 0x100002B5C, symSize: 0x2C }
  - { offsetInCU: 0xC1AF, offset: 0x1151B, size: 0x8, addend: 0x0, symName: __ZN4RoomD1Ev, symObjAddr: 0xB18, symBinAddr: 0x100002B88, symSize: 0x2C }
  - { offsetInCU: 0xC30A, offset: 0x11676, size: 0x8, addend: 0x0, symName: __ZN6PlayerD1Ev, symObjAddr: 0xB44, symBinAddr: 0x100002BB4, symSize: 0x2C }
  - { offsetInCU: 0xC334, offset: 0x116A0, size: 0x8, addend: 0x0, symName: __ZN4ItemD2Ev, symObjAddr: 0xB70, symBinAddr: 0x100002BE0, symSize: 0x38 }
  - { offsetInCU: 0xC35E, offset: 0x116CA, size: 0x8, addend: 0x0, symName: __ZN7MonsterD2Ev, symObjAddr: 0xBA8, symBinAddr: 0x100002C18, symSize: 0x2C }
  - { offsetInCU: 0xC388, offset: 0x116F4, size: 0x8, addend: 0x0, symName: __ZN9CharacterD2Ev, symObjAddr: 0xBD4, symBinAddr: 0x100002C44, symSize: 0x40 }
  - { offsetInCU: 0xC3B2, offset: 0x1171E, size: 0x8, addend: 0x0, symName: __ZN4RoomD2Ev, symObjAddr: 0xC14, symBinAddr: 0x100002C84, symSize: 0x50 }
  - { offsetInCU: 0xC3DB, offset: 0x11747, size: 0x8, addend: 0x0, symName: __ZNSt3__13mapINS_12basic_stringIcNS_11char_traitsIcEENS_9allocatorIcEEEEP4RoomNS_4lessIS6_EENS4_INS_4pairIKS6_S8_EEEEED1B8ue170006Ev, symObjAddr: 0xC64, symBinAddr: 0x100002CD4, symSize: 0x2C }
  - { offsetInCU: 0xC404, offset: 0x11770, size: 0x8, addend: 0x0, symName: __ZNSt3__16vectorI7MonsterNS_9allocatorIS1_EEED1B8ue170006Ev, symObjAddr: 0xC90, symBinAddr: 0x100002D00, symSize: 0x2C }
  - { offsetInCU: 0xC42D, offset: 0x11799, size: 0x8, addend: 0x0, symName: __ZNSt3__16vectorI4ItemNS_9allocatorIS1_EEED1B8ue170006Ev, symObjAddr: 0xCBC, symBinAddr: 0x100002D2C, symSize: 0x2C }
  - { offsetInCU: 0xC456, offset: 0x117C2, size: 0x8, addend: 0x0, symName: __ZNSt3__13mapINS_12basic_stringIcNS_11char_traitsIcEENS_9allocatorIcEEEEP4RoomNS_4lessIS6_EENS4_INS_4pairIKS6_S8_EEEEED2B8ue170006Ev, symObjAddr: 0xCE8, symBinAddr: 0x100002D58, symSize: 0x2C }
  - { offsetInCU: 0xC480, offset: 0x117EC, size: 0x8, addend: 0x0, symName: __ZNSt3__16__treeINS_12__value_typeINS_12basic_stringIcNS_11char_traitsIcEENS_9allocatorIcEEEEP4RoomEENS_19__map_value_compareIS7_SA_NS_4lessIS7_EELb1EEENS5_ISA_EEED1Ev, symObjAddr: 0xD14, symBinAddr: 0x100002D84, symSize: 0x2C }
  - { offsetInCU: 0xC4AB, offset: 0x11817, size: 0x8, addend: 0x0, symName: __ZNSt3__16__treeINS_12__value_typeINS_12basic_stringIcNS_11char_traitsIcEENS_9allocatorIcEEEEP4RoomEENS_19__map_value_compareIS7_SA_NS_4lessIS7_EELb1EEENS5_ISA_EEED2Ev, symObjAddr: 0xD40, symBinAddr: 0x100002DB0, symSize: 0x38 }
  - { offsetInCU: 0xC4D6, offset: 0x11842, size: 0x8, addend: 0x0, symName: __ZNSt3__16__treeINS_12__value_typeINS_12basic_stringIcNS_11char_traitsIcEENS_9allocatorIcEEEEP4RoomEENS_19__map_value_compareIS7_SA_NS_4lessIS7_EELb1EEENS5_ISA_EEE7destroyEPNS_11__tree_nodeISA_PvEE, symObjAddr: 0xD78, symBinAddr: 0x100002DE8, symSize: 0xAC }
  - { offsetInCU: 0xC521, offset: 0x1188D, size: 0x8, addend: 0x0, symName: __ZNKSt3__16__treeINS_12__value_typeINS_12basic_stringIcNS_11char_traitsIcEENS_9allocatorIcEEEEP4RoomEENS_19__map_value_compareIS7_SA_NS_4lessIS7_EELb1EEENS5_ISA_EEE6__rootB8ue170006Ev, symObjAddr: 0xE24, symBinAddr: 0x100002E94, symSize: 0x28 }
  - { offsetInCU: 0xC546, offset: 0x118B2, size: 0x8, addend: 0x0, symName: __ZNSt3__16__treeINS_12__value_typeINS_12basic_stringIcNS_11char_traitsIcEENS_9allocatorIcEEEEP4RoomEENS_19__map_value_compareIS7_SA_NS_4lessIS7_EELb1EEENS5_ISA_EEE12__node_allocB8ue170006Ev, symObjAddr: 0xE4C, symBinAddr: 0x100002EBC, symSize: 0x28 }
  - { offsetInCU: 0xC570, offset: 0x118DC, size: 0x8, addend: 0x0, symName: __ZNSt3__116allocator_traitsINS_9allocatorINS_11__tree_nodeINS_12__value_typeINS_12basic_stringIcNS_11char_traitsIcEENS1_IcEEEEP4RoomEEPvEEEEE7destroyB8ue170006INS_4pairIKS8_SA_EEvvEEvRSE_PT_, symObjAddr: 0xE74, symBinAddr: 0x100002EE4, symSize: 0x28 }
  - { offsetInCU: 0xC5AB, offset: 0x11917, size: 0x8, addend: 0x0, symName: __ZNSt3__122__tree_key_value_typesINS_12__value_typeINS_12basic_stringIcNS_11char_traitsIcEENS_9allocatorIcEEEEP4RoomEEE9__get_ptrB8ue170006ERSA_, symObjAddr: 0xE9C, symBinAddr: 0x100002F0C, symSize: 0x24 }
  - { offsetInCU: 0xC5CF, offset: 0x1193B, size: 0x8, addend: 0x0, symName: __ZNSt3__116allocator_traitsINS_9allocatorINS_11__tree_nodeINS_12__value_typeINS_12basic_stringIcNS_11char_traitsIcEENS1_IcEEEEP4RoomEEPvEEEEE10deallocateB8ue170006ERSE_PSD_m, symObjAddr: 0xECC, symBinAddr: 0x100002F3C, symSize: 0x34 }
  - { offsetInCU: 0xC611, offset: 0x1197D, size: 0x8, addend: 0x0, symName: __ZNSt3__117__compressed_pairINS_15__tree_end_nodeIPNS_16__tree_node_baseIPvEEEENS_9allocatorINS_11__tree_nodeINS_12__value_typeINS_12basic_stringIcNS_11char_traitsIcEENS7_IcEEEEP4RoomEES3_EEEEE6secondB8ue170006Ev, symObjAddr: 0xF00, symBinAddr: 0x100002F70, symSize: 0x24 }
  - { offsetInCU: 0xC636, offset: 0x119A2, size: 0x8, addend: 0x0, symName: __ZNSt3__122__compressed_pair_elemINS_9allocatorINS_11__tree_nodeINS_12__value_typeINS_12basic_stringIcNS_11char_traitsIcEENS1_IcEEEEP4RoomEEPvEEEELi1ELb1EE5__getB8ue170006Ev, symObjAddr: 0xF24, symBinAddr: 0x100002F94, symSize: 0x14 }
  - { offsetInCU: 0xC65B, offset: 0x119C7, size: 0x8, addend: 0x0, symName: __ZNSt3__14pairIKNS_12basic_stringIcNS_11char_traitsIcEENS_9allocatorIcEEEEP4RoomED1Ev, symObjAddr: 0xF38, symBinAddr: 0x100002FA8, symSize: 0x2C }
  - { offsetInCU: 0xC685, offset: 0x119F1, size: 0x8, addend: 0x0, symName: __ZNSt3__14pairIKNS_12basic_stringIcNS_11char_traitsIcEENS_9allocatorIcEEEEP4RoomED2Ev, symObjAddr: 0xF64, symBinAddr: 0x100002FD4, symSize: 0x2C }
  - { offsetInCU: 0xC6AF, offset: 0x11A1B, size: 0x8, addend: 0x0, symName: __ZNSt3__112__value_typeINS_12basic_stringIcNS_11char_traitsIcEENS_9allocatorIcEEEEP4RoomE11__get_valueB8ue170006Ev, symObjAddr: 0xF90, symBinAddr: 0x100003000, symSize: 0x14 }
  - { offsetInCU: 0xC6D4, offset: 0x11A40, size: 0x8, addend: 0x0, symName: __ZNSt3__19allocatorINS_11__tree_nodeINS_12__value_typeINS_12basic_stringIcNS_11char_traitsIcEENS0_IcEEEEP4RoomEEPvEEE10deallocateB8ue170006EPSC_m, symObjAddr: 0xFA4, symBinAddr: 0x100003014, symSize: 0x40 }
  - { offsetInCU: 0xC715, offset: 0x11A81, size: 0x8, addend: 0x0, symName: __ZNKSt3__16__treeINS_12__value_typeINS_12basic_stringIcNS_11char_traitsIcEENS_9allocatorIcEEEEP4RoomEENS_19__map_value_compareIS7_SA_NS_4lessIS7_EELb1EEENS5_ISA_EEE10__end_nodeB8ue170006Ev, symObjAddr: 0x1060, symBinAddr: 0x1000030D0, symSize: 0x2C }
  - { offsetInCU: 0xC73A, offset: 0x11AA6, size: 0x8, addend: 0x0, symName: __ZNSt3__114pointer_traitsIPNS_15__tree_end_nodeIPNS_16__tree_node_baseIPvEEEEE10pointer_toB8ue170006ERS6_, symObjAddr: 0x108C, symBinAddr: 0x1000030FC, symSize: 0x14 }
  - { offsetInCU: 0xC75D, offset: 0x11AC9, size: 0x8, addend: 0x0, symName: __ZNKSt3__117__compressed_pairINS_15__tree_end_nodeIPNS_16__tree_node_baseIPvEEEENS_9allocatorINS_11__tree_nodeINS_12__value_typeINS_12basic_stringIcNS_11char_traitsIcEENS7_IcEEEEP4RoomEES3_EEEEE5firstB8ue170006Ev, symObjAddr: 0x10A0, symBinAddr: 0x100003110, symSize: 0x24 }
  - { offsetInCU: 0xC782, offset: 0x11AEE, size: 0x8, addend: 0x0, symName: __ZNKSt3__122__compressed_pair_elemINS_15__tree_end_nodeIPNS_16__tree_node_baseIPvEEEELi0ELb0EE5__getB8ue170006Ev, symObjAddr: 0x10C4, symBinAddr: 0x100003134, symSize: 0x14 }
  - { offsetInCU: 0xC7A6, offset: 0x11B12, size: 0x8, addend: 0x0, symName: __ZNSt3__16vectorI7MonsterNS_9allocatorIS1_EEED2B8ue170006Ev, symObjAddr: 0x10D8, symBinAddr: 0x100003148, symSize: 0x44 }
  - { offsetInCU: 0xC7CF, offset: 0x11B3B, size: 0x8, addend: 0x0, symName: __ZNSt3__16vectorI7MonsterNS_9allocatorIS1_EEE16__destroy_vectorC1B8ue170006ERS4_, symObjAddr: 0x111C, symBinAddr: 0x10000318C, symSize: 0x34 }
  - { offsetInCU: 0xC808, offset: 0x11B74, size: 0x8, addend: 0x0, symName: __ZNSt3__16vectorI7MonsterNS_9allocatorIS1_EEE16__destroy_vectorclB8ue170006Ev, symObjAddr: 0x1150, symBinAddr: 0x1000031C0, symSize: 0x90 }
  - { offsetInCU: 0xC82D, offset: 0x11B99, size: 0x8, addend: 0x0, symName: __ZNSt3__16vectorI7MonsterNS_9allocatorIS1_EEE16__destroy_vectorC2B8ue170006ERS4_, symObjAddr: 0x11E0, symBinAddr: 0x100003250, symSize: 0x20 }
  - { offsetInCU: 0xC865, offset: 0x11BD1, size: 0x8, addend: 0x0, symName: __ZNSt3__16vectorI7MonsterNS_9allocatorIS1_EEE7__clearB8ue170006Ev, symObjAddr: 0x1200, symBinAddr: 0x100003270, symSize: 0x28 }
  - { offsetInCU: 0xC88A, offset: 0x11BF6, size: 0x8, addend: 0x0, symName: __ZNKSt3__16vectorI7MonsterNS_9allocatorIS1_EEE17__annotate_deleteB8ue170006Ev, symObjAddr: 0x1228, symBinAddr: 0x100003298, symSize: 0xD4 }
  - { offsetInCU: 0xC8AF, offset: 0x11C1B, size: 0x8, addend: 0x0, symName: __ZNSt3__116allocator_traitsINS_9allocatorI7MonsterEEE10deallocateB8ue170006ERS3_PS2_m, symObjAddr: 0x12FC, symBinAddr: 0x10000336C, symSize: 0x34 }
  - { offsetInCU: 0xC8F1, offset: 0x11C5D, size: 0x8, addend: 0x0, symName: __ZNSt3__16vectorI7MonsterNS_9allocatorIS1_EEE7__allocB8ue170006Ev, symObjAddr: 0x1330, symBinAddr: 0x1000033A0, symSize: 0x28 }
  - { offsetInCU: 0xC916, offset: 0x11C82, size: 0x8, addend: 0x0, symName: __ZNKSt3__16vectorI7MonsterNS_9allocatorIS1_EEE8capacityB8ue170006Ev, symObjAddr: 0x1358, symBinAddr: 0x1000033C8, symSize: 0x40 }
  - { offsetInCU: 0xC93B, offset: 0x11CA7, size: 0x8, addend: 0x0, symName: __ZNSt3__16vectorI7MonsterNS_9allocatorIS1_EEE22__base_destruct_at_endB8ue170006EPS1_, symObjAddr: 0x1398, symBinAddr: 0x100003408, symSize: 0x8C }
  - { offsetInCU: 0xC97E, offset: 0x11CEA, size: 0x8, addend: 0x0, symName: __ZNSt3__116allocator_traitsINS_9allocatorI7MonsterEEE7destroyB8ue170006IS2_vEEvRS3_PT_, symObjAddr: 0x1424, symBinAddr: 0x100003494, symSize: 0x2C }
  - { offsetInCU: 0xC9BB, offset: 0x11D27, size: 0x8, addend: 0x0, symName: __ZNSt3__19allocatorI7MonsterE7destroyB8ue170006EPS1_, symObjAddr: 0x1464, symBinAddr: 0x1000034D4, symSize: 0x28 }
  - { offsetInCU: 0xC9EE, offset: 0x11D5A, size: 0x8, addend: 0x0, symName: __ZNKSt3__16vectorI7MonsterNS_9allocatorIS1_EEE31__annotate_contiguous_containerB8ue170006EPKvS6_S6_S6_, symObjAddr: 0x148C, symBinAddr: 0x1000034FC, symSize: 0x20 }
  - { offsetInCU: 0xCA43, offset: 0x11DAF, size: 0x8, addend: 0x0, symName: __ZNKSt3__16vectorI7MonsterNS_9allocatorIS1_EEE4dataB8ue170006Ev, symObjAddr: 0x14AC, symBinAddr: 0x10000351C, symSize: 0x28 }
  - { offsetInCU: 0xCA68, offset: 0x11DD4, size: 0x8, addend: 0x0, symName: __ZNKSt3__16vectorI7MonsterNS_9allocatorIS1_EEE4sizeB8ue170006Ev, symObjAddr: 0x14D4, symBinAddr: 0x100003544, symSize: 0x28 }
  - { offsetInCU: 0xCA8D, offset: 0x11DF9, size: 0x8, addend: 0x0, symName: __ZNSt3__19allocatorI7MonsterE10deallocateB8ue170006EPS1_m, symObjAddr: 0x14FC, symBinAddr: 0x10000356C, symSize: 0x44 }
  - { offsetInCU: 0xCACE, offset: 0x11E3A, size: 0x8, addend: 0x0, symName: __ZNSt3__117__compressed_pairIP7MonsterNS_9allocatorIS1_EEE6secondB8ue170006Ev, symObjAddr: 0x1540, symBinAddr: 0x1000035B0, symSize: 0x24 }
  - { offsetInCU: 0xCAF3, offset: 0x11E5F, size: 0x8, addend: 0x0, symName: __ZNSt3__122__compressed_pair_elemINS_9allocatorI7MonsterEELi1ELb1EE5__getB8ue170006Ev, symObjAddr: 0x1564, symBinAddr: 0x1000035D4, symSize: 0x14 }
  - { offsetInCU: 0xCB18, offset: 0x11E84, size: 0x8, addend: 0x0, symName: __ZNKSt3__16vectorI7MonsterNS_9allocatorIS1_EEE9__end_capB8ue170006Ev, symObjAddr: 0x1578, symBinAddr: 0x1000035E8, symSize: 0x28 }
  - { offsetInCU: 0xCB3D, offset: 0x11EA9, size: 0x8, addend: 0x0, symName: __ZNKSt3__117__compressed_pairIP7MonsterNS_9allocatorIS1_EEE5firstB8ue170006Ev, symObjAddr: 0x15A0, symBinAddr: 0x100003610, symSize: 0x24 }
  - { offsetInCU: 0xCB62, offset: 0x11ECE, size: 0x8, addend: 0x0, symName: __ZNKSt3__122__compressed_pair_elemIP7MonsterLi0ELb0EE5__getB8ue170006Ev, symObjAddr: 0x15C4, symBinAddr: 0x100003634, symSize: 0x14 }
  - { offsetInCU: 0xCB86, offset: 0x11EF2, size: 0x8, addend: 0x0, symName: __ZNSt3__16vectorI4ItemNS_9allocatorIS1_EEED2B8ue170006Ev, symObjAddr: 0x15D8, symBinAddr: 0x100003648, symSize: 0x44 }
  - { offsetInCU: 0xCBAF, offset: 0x11F1B, size: 0x8, addend: 0x0, symName: __ZNSt3__16vectorI4ItemNS_9allocatorIS1_EEE16__destroy_vectorC1B8ue170006ERS4_, symObjAddr: 0x161C, symBinAddr: 0x10000368C, symSize: 0x34 }
  - { offsetInCU: 0xCBE8, offset: 0x11F54, size: 0x8, addend: 0x0, symName: __ZNSt3__16vectorI4ItemNS_9allocatorIS1_EEE16__destroy_vectorclB8ue170006Ev, symObjAddr: 0x1650, symBinAddr: 0x1000036C0, symSize: 0x90 }
  - { offsetInCU: 0xCC0D, offset: 0x11F79, size: 0x8, addend: 0x0, symName: __ZNSt3__16vectorI4ItemNS_9allocatorIS1_EEE16__destroy_vectorC2B8ue170006ERS4_, symObjAddr: 0x16E0, symBinAddr: 0x100003750, symSize: 0x20 }
  - { offsetInCU: 0xCC45, offset: 0x11FB1, size: 0x8, addend: 0x0, symName: __ZNSt3__16vectorI4ItemNS_9allocatorIS1_EEE7__clearB8ue170006Ev, symObjAddr: 0x1700, symBinAddr: 0x100003770, symSize: 0x28 }
  - { offsetInCU: 0xCC6A, offset: 0x11FD6, size: 0x8, addend: 0x0, symName: __ZNKSt3__16vectorI4ItemNS_9allocatorIS1_EEE17__annotate_deleteB8ue170006Ev, symObjAddr: 0x1728, symBinAddr: 0x100003798, symSize: 0xD4 }
  - { offsetInCU: 0xCC8F, offset: 0x11FFB, size: 0x8, addend: 0x0, symName: __ZNSt3__116allocator_traitsINS_9allocatorI4ItemEEE10deallocateB8ue170006ERS3_PS2_m, symObjAddr: 0x17FC, symBinAddr: 0x10000386C, symSize: 0x34 }
  - { offsetInCU: 0xCCD1, offset: 0x1203D, size: 0x8, addend: 0x0, symName: __ZNSt3__16vectorI4ItemNS_9allocatorIS1_EEE7__allocB8ue170006Ev, symObjAddr: 0x1830, symBinAddr: 0x1000038A0, symSize: 0x28 }
  - { offsetInCU: 0xCCF6, offset: 0x12062, size: 0x8, addend: 0x0, symName: __ZNKSt3__16vectorI4ItemNS_9allocatorIS1_EEE8capacityB8ue170006Ev, symObjAddr: 0x1858, symBinAddr: 0x1000038C8, symSize: 0x40 }
  - { offsetInCU: 0xCD1B, offset: 0x12087, size: 0x8, addend: 0x0, symName: __ZNSt3__16vectorI4ItemNS_9allocatorIS1_EEE22__base_destruct_at_endB8ue170006EPS1_, symObjAddr: 0x1898, symBinAddr: 0x100003908, symSize: 0x8C }
  - { offsetInCU: 0xCD5E, offset: 0x120CA, size: 0x8, addend: 0x0, symName: __ZNSt3__116allocator_traitsINS_9allocatorI4ItemEEE7destroyB8ue170006IS2_vEEvRS3_PT_, symObjAddr: 0x1924, symBinAddr: 0x100003994, symSize: 0x2C }
  - { offsetInCU: 0xCD9B, offset: 0x12107, size: 0x8, addend: 0x0, symName: __ZNSt3__19allocatorI4ItemE7destroyB8ue170006EPS1_, symObjAddr: 0x1964, symBinAddr: 0x1000039D4, symSize: 0x28 }
  - { offsetInCU: 0xCDCE, offset: 0x1213A, size: 0x8, addend: 0x0, symName: __ZNKSt3__16vectorI4ItemNS_9allocatorIS1_EEE31__annotate_contiguous_containerB8ue170006EPKvS6_S6_S6_, symObjAddr: 0x198C, symBinAddr: 0x1000039FC, symSize: 0x20 }
  - { offsetInCU: 0xCE23, offset: 0x1218F, size: 0x8, addend: 0x0, symName: __ZNKSt3__16vectorI4ItemNS_9allocatorIS1_EEE4dataB8ue170006Ev, symObjAddr: 0x19AC, symBinAddr: 0x100003A1C, symSize: 0x28 }
  - { offsetInCU: 0xCE48, offset: 0x121B4, size: 0x8, addend: 0x0, symName: __ZNKSt3__16vectorI4ItemNS_9allocatorIS1_EEE4sizeB8ue170006Ev, symObjAddr: 0x19D4, symBinAddr: 0x100003A44, symSize: 0x28 }
  - { offsetInCU: 0xCE6D, offset: 0x121D9, size: 0x8, addend: 0x0, symName: __ZNSt3__19allocatorI4ItemE10deallocateB8ue170006EPS1_m, symObjAddr: 0x19FC, symBinAddr: 0x100003A6C, symSize: 0x44 }
  - { offsetInCU: 0xCEAE, offset: 0x1221A, size: 0x8, addend: 0x0, symName: __ZNSt3__117__compressed_pairIP4ItemNS_9allocatorIS1_EEE6secondB8ue170006Ev, symObjAddr: 0x1A40, symBinAddr: 0x100003AB0, symSize: 0x24 }
  - { offsetInCU: 0xCED3, offset: 0x1223F, size: 0x8, addend: 0x0, symName: __ZNSt3__122__compressed_pair_elemINS_9allocatorI4ItemEELi1ELb1EE5__getB8ue170006Ev, symObjAddr: 0x1A64, symBinAddr: 0x100003AD4, symSize: 0x14 }
  - { offsetInCU: 0xCEF8, offset: 0x12264, size: 0x8, addend: 0x0, symName: __ZNKSt3__16vectorI4ItemNS_9allocatorIS1_EEE9__end_capB8ue170006Ev, symObjAddr: 0x1A78, symBinAddr: 0x100003AE8, symSize: 0x28 }
  - { offsetInCU: 0xCF1D, offset: 0x12289, size: 0x8, addend: 0x0, symName: __ZNKSt3__117__compressed_pairIP4ItemNS_9allocatorIS1_EEE5firstB8ue170006Ev, symObjAddr: 0x1AA0, symBinAddr: 0x100003B10, symSize: 0x24 }
  - { offsetInCU: 0xCF42, offset: 0x122AE, size: 0x8, addend: 0x0, symName: __ZNKSt3__122__compressed_pair_elemIP4ItemLi0ELb0EE5__getB8ue170006Ev, symObjAddr: 0x1AC4, symBinAddr: 0x100003B34, symSize: 0x14 }
  - { offsetInCU: 0xCF67, offset: 0x122D3, size: 0x8, addend: 0x0, symName: __ZN6PlayerD2Ev, symObjAddr: 0x1AD8, symBinAddr: 0x100003B48, symSize: 0x48 }
  - { offsetInCU: 0xCF90, offset: 0x122FC, size: 0x8, addend: 0x0, symName: __ZNSt3__112basic_stringIcNS_11char_traitsIcEENS_9allocatorIcEEEC2B8ue170006ILi0EEEPKc, symObjAddr: 0x1B20, symBinAddr: 0x100003B90, symSize: 0x58 }
  - { offsetInCU: 0xCFD3, offset: 0x1233F, size: 0x8, addend: 0x0, symName: __ZNSt3__117__compressed_pairINS_12basic_stringIcNS_11char_traitsIcEENS_9allocatorIcEEE5__repES5_EC1B8ue170006INS_18__default_init_tagESA_EEOT_OT0_, symObjAddr: 0x1B78, symBinAddr: 0x100003BE8, symSize: 0x3C }
  - { offsetInCU: 0xD02B, offset: 0x12397, size: 0x8, addend: 0x0, symName: __ZNSt3__111char_traitsIcE6lengthB8ue170006EPKc, symObjAddr: 0x1BB4, symBinAddr: 0x100003C24, symSize: 0x34 }
  - { offsetInCU: 0xD04D, offset: 0x123B9, size: 0x8, addend: 0x0, symName: __ZNSt3__117__compressed_pairINS_12basic_stringIcNS_11char_traitsIcEENS_9allocatorIcEEE5__repES5_EC2B8ue170006INS_18__default_init_tagESA_EEOT_OT0_, symObjAddr: 0x1BE8, symBinAddr: 0x100003C58, symSize: 0x3C }
  - { offsetInCU: 0xD0A5, offset: 0x12411, size: 0x8, addend: 0x0, symName: __ZNSt3__122__compressed_pair_elemINS_12basic_stringIcNS_11char_traitsIcEENS_9allocatorIcEEE5__repELi0ELb0EEC2B8ue170006ENS_18__default_init_tagE, symObjAddr: 0x1C24, symBinAddr: 0x100003C94, symSize: 0x14 }
  - { offsetInCU: 0xD0D8, offset: 0x12444, size: 0x8, addend: 0x0, symName: __ZNSt3__122__compressed_pair_elemINS_9allocatorIcEELi1ELb1EEC2B8ue170006ENS_18__default_init_tagE, symObjAddr: 0x1C38, symBinAddr: 0x100003CA8, symSize: 0x2C }
  - { offsetInCU: 0xD10C, offset: 0x12478, size: 0x8, addend: 0x0, symName: __ZNSt3__19allocatorIcEC2B8ue170006Ev, symObjAddr: 0x1C64, symBinAddr: 0x100003CD4, symSize: 0x2C }
  - { offsetInCU: 0xD136, offset: 0x124A2, size: 0x8, addend: 0x0, symName: __ZNSt3__116__non_trivial_ifILb1ENS_9allocatorIcEEEC2B8ue170006Ev, symObjAddr: 0x1C90, symBinAddr: 0x100003D00, symSize: 0x14 }
  - { offsetInCU: 0xD15F, offset: 0x124CB, size: 0x8, addend: 0x0, symName: __ZNKSt3__112basic_stringIcNS_11char_traitsIcEENS_9allocatorIcEEE4dataB8ue170006Ev, symObjAddr: 0x1EB4, symBinAddr: 0x100003F24, symSize: 0x28 }
  - { offsetInCU: 0xD184, offset: 0x124F0, size: 0x8, addend: 0x0, symName: __ZNKSt3__112basic_stringIcNS_11char_traitsIcEENS_9allocatorIcEEE4sizeB8ue170006Ev, symObjAddr: 0x1EDC, symBinAddr: 0x100003F4C, symSize: 0x54 }
  - { offsetInCU: 0xD1C7, offset: 0x12533, size: 0x8, addend: 0x0, symName: __ZNKSt3__113basic_ostreamIcNS_11char_traitsIcEEE6sentrycvbB8ue170006Ev, symObjAddr: 0x1F30, symBinAddr: 0x100003FA0, symSize: 0x1C }
  - { offsetInCU: 0xD1EB, offset: 0x12557, size: 0x8, addend: 0x0, symName: __ZNSt3__119ostreambuf_iteratorIcNS_11char_traitsIcEEEC1B8ue170006ERNS_13basic_ostreamIcS2_EE, symObjAddr: 0x218C, symBinAddr: 0x1000041FC, symSize: 0x34 }
  - { offsetInCU: 0xD223, offset: 0x1258F, size: 0x8, addend: 0x0, symName: __ZNKSt3__18ios_base5flagsB8ue170006Ev, symObjAddr: 0x21C0, symBinAddr: 0x100004230, symSize: 0x18 }
  - { offsetInCU: 0xD24A, offset: 0x125B6, size: 0x8, addend: 0x0, symName: __ZNKSt3__19basic_iosIcNS_11char_traitsIcEEE4fillB8ue170006Ev, symObjAddr: 0x21D8, symBinAddr: 0x100004248, symSize: 0x64 }
  - { offsetInCU: 0xD271, offset: 0x125DD, size: 0x8, addend: 0x0, symName: __ZNKSt3__119ostreambuf_iteratorIcNS_11char_traitsIcEEE6failedB8ue170006Ev, symObjAddr: 0x223C, symBinAddr: 0x1000042AC, symSize: 0x24 }
  - { offsetInCU: 0xD296, offset: 0x12602, size: 0x8, addend: 0x0, symName: __ZNSt3__19basic_iosIcNS_11char_traitsIcEEE8setstateB8ue170006Ej, symObjAddr: 0x2260, symBinAddr: 0x1000042D0, symSize: 0x2C }
  - { offsetInCU: 0xD2CA, offset: 0x12636, size: 0x8, addend: 0x0, symName: __ZNKSt3__18ios_base5widthB8ue170006Ev, symObjAddr: 0x228C, symBinAddr: 0x1000042FC, symSize: 0x18 }
  - { offsetInCU: 0xD2F1, offset: 0x1265D, size: 0x8, addend: 0x0, symName: __ZNSt3__115basic_streambufIcNS_11char_traitsIcEEE5sputnB8ue170006EPKcl, symObjAddr: 0x22A4, symBinAddr: 0x100004314, symSize: 0x3C }
  - { offsetInCU: 0xD331, offset: 0x1269D, size: 0x8, addend: 0x0, symName: __ZNSt3__112basic_stringIcNS_11char_traitsIcEENS_9allocatorIcEEEC1B8ue170006Emc, symObjAddr: 0x22E0, symBinAddr: 0x100004350, symSize: 0x3C }
  - { offsetInCU: 0xD379, offset: 0x126E5, size: 0x8, addend: 0x0, symName: __ZNSt3__18ios_base5widthB8ue170006El, symObjAddr: 0x231C, symBinAddr: 0x10000438C, symSize: 0x2C }
  - { offsetInCU: 0xD3BD, offset: 0x12729, size: 0x8, addend: 0x0, symName: __ZNSt3__112basic_stringIcNS_11char_traitsIcEENS_9allocatorIcEEEC2B8ue170006Emc, symObjAddr: 0x2348, symBinAddr: 0x1000043B8, symSize: 0x4C }
  - { offsetInCU: 0xD404, offset: 0x12770, size: 0x8, addend: 0x0, symName: __ZNSt3__119ostreambuf_iteratorIcNS_11char_traitsIcEEEC2B8ue170006ERNS_13basic_ostreamIcS2_EE, symObjAddr: 0x2394, symBinAddr: 0x100004404, symSize: 0x54 }
  - { offsetInCU: 0xD43C, offset: 0x127A8, size: 0x8, addend: 0x0, symName: __ZNKSt3__19basic_iosIcNS_11char_traitsIcEEE5rdbufB8ue170006Ev, symObjAddr: 0x23E8, symBinAddr: 0x100004458, symSize: 0x24 }
  - { offsetInCU: 0xD463, offset: 0x127CF, size: 0x8, addend: 0x0, symName: __ZNKSt3__18ios_base5rdbufB8ue170006Ev, symObjAddr: 0x240C, symBinAddr: 0x10000447C, symSize: 0x18 }
  - { offsetInCU: 0xD488, offset: 0x127F4, size: 0x8, addend: 0x0, symName: __ZNSt3__111char_traitsIcE11eq_int_typeB8ue170006Eii, symObjAddr: 0x2424, symBinAddr: 0x100004494, symSize: 0x28 }
  - { offsetInCU: 0xD4BB, offset: 0x12827, size: 0x8, addend: 0x0, symName: __ZNSt3__111char_traitsIcE3eofB8ue170006Ev, symObjAddr: 0x244C, symBinAddr: 0x1000044BC, symSize: 0x8 }
  - { offsetInCU: 0xD4CF, offset: 0x1283B, size: 0x8, addend: 0x0, symName: __ZNKSt3__19basic_iosIcNS_11char_traitsIcEEE5widenB8ue170006Ec, symObjAddr: 0x2454, symBinAddr: 0x1000044C4, symSize: 0x84 }
  - { offsetInCU: 0xD532, offset: 0x1289E, size: 0x8, addend: 0x0, symName: __ZNKSt3__15ctypeIcE5widenB8ue170006Ec, symObjAddr: 0x2504, symBinAddr: 0x100004574, symSize: 0x38 }
  - { offsetInCU: 0xD566, offset: 0x128D2, size: 0x8, addend: 0x0, symName: __ZNSt3__18ios_base8setstateB8ue170006Ej, symObjAddr: 0x253C, symBinAddr: 0x1000045AC, symSize: 0x34 }
  - { offsetInCU: 0xD59C, offset: 0x12908, size: 0x8, addend: 0x0, symName: __ZNKSt3__112basic_stringIcNS_11char_traitsIcEENS_9allocatorIcEEE13__get_pointerB8ue170006Ev, symObjAddr: 0x2584, symBinAddr: 0x1000045F4, symSize: 0x54 }
  - { offsetInCU: 0xD5C1, offset: 0x1292D, size: 0x8, addend: 0x0, symName: __ZNKSt3__112basic_stringIcNS_11char_traitsIcEENS_9allocatorIcEEE9__is_longB8ue170006Ev, symObjAddr: 0x25D8, symBinAddr: 0x100004648, symSize: 0x38 }
  - { offsetInCU: 0xD5E6, offset: 0x12952, size: 0x8, addend: 0x0, symName: __ZNKSt3__112basic_stringIcNS_11char_traitsIcEENS_9allocatorIcEEE18__get_long_pointerB8ue170006Ev, symObjAddr: 0x2610, symBinAddr: 0x100004680, symSize: 0x28 }
  - { offsetInCU: 0xD60B, offset: 0x12977, size: 0x8, addend: 0x0, symName: __ZNKSt3__112basic_stringIcNS_11char_traitsIcEENS_9allocatorIcEEE19__get_short_pointerB8ue170006Ev, symObjAddr: 0x2638, symBinAddr: 0x1000046A8, symSize: 0x28 }
  - { offsetInCU: 0xD630, offset: 0x1299C, size: 0x8, addend: 0x0, symName: __ZNKSt3__117__compressed_pairINS_12basic_stringIcNS_11char_traitsIcEENS_9allocatorIcEEE5__repES5_E5firstB8ue170006Ev, symObjAddr: 0x2660, symBinAddr: 0x1000046D0, symSize: 0x24 }
  - { offsetInCU: 0xD655, offset: 0x129C1, size: 0x8, addend: 0x0, symName: __ZNKSt3__122__compressed_pair_elemINS_12basic_stringIcNS_11char_traitsIcEENS_9allocatorIcEEE5__repELi0ELb0EE5__getB8ue170006Ev, symObjAddr: 0x2684, symBinAddr: 0x1000046F4, symSize: 0x14 }
  - { offsetInCU: 0xD67A, offset: 0x129E6, size: 0x8, addend: 0x0, symName: __ZNSt3__114pointer_traitsIPKcE10pointer_toB8ue170006ERS1_, symObjAddr: 0x2698, symBinAddr: 0x100004708, symSize: 0x14 }
  - { offsetInCU: 0xD69D, offset: 0x12A09, size: 0x8, addend: 0x0, symName: __ZNKSt3__112basic_stringIcNS_11char_traitsIcEENS_9allocatorIcEEE15__get_long_sizeB8ue170006Ev, symObjAddr: 0x26AC, symBinAddr: 0x10000471C, symSize: 0x28 }
  - { offsetInCU: 0xD6C2, offset: 0x12A2E, size: 0x8, addend: 0x0, symName: __ZNKSt3__112basic_stringIcNS_11char_traitsIcEENS_9allocatorIcEEE16__get_short_sizeB8ue170006Ev, symObjAddr: 0x26D4, symBinAddr: 0x100004744, symSize: 0x34 }
  - { offsetInCU: 0xD6E6, offset: 0x12A52, size: 0x8, addend: 0x0, symName: __ZNSt3__112basic_stringIcNS_11char_traitsIcEENS_9allocatorIcEEEC2B8ue170006Ev, symObjAddr: 0x2708, symBinAddr: 0x100004778, symSize: 0x48 }
  - { offsetInCU: 0xD710, offset: 0x12A7C, size: 0x8, addend: 0x0, symName: __ZNSt3__112basic_stringIcNS_11char_traitsIcEENS_9allocatorIcEEE14__default_initB8ue170006Ev, symObjAddr: 0x2750, symBinAddr: 0x1000047C0, symSize: 0x40 }
  - { offsetInCU: 0xD735, offset: 0x12AA1, size: 0x8, addend: 0x0, symName: __ZNSt3__117__compressed_pairINS_12basic_stringIcNS_11char_traitsIcEENS_9allocatorIcEEE5__repES5_E5firstB8ue170006Ev, symObjAddr: 0x2790, symBinAddr: 0x100004800, symSize: 0x24 }
  - { offsetInCU: 0xD75A, offset: 0x12AC6, size: 0x8, addend: 0x0, symName: __ZNSt3__122__compressed_pair_elemINS_12basic_stringIcNS_11char_traitsIcEENS_9allocatorIcEEE5__repELi0ELb0EE5__getB8ue170006Ev, symObjAddr: 0x27B4, symBinAddr: 0x100004824, symSize: 0x14 }
  - { offsetInCU: 0xD80C, offset: 0x12B78, size: 0x8, addend: 0x0, symName: __ZNKSt3__113basic_istreamIcNS_11char_traitsIcEEE6sentrycvbB8ue170006Ev, symObjAddr: 0x27C8, symBinAddr: 0x100004838, symSize: 0x1C }
  - { offsetInCU: 0xD831, offset: 0x12B9D, size: 0x8, addend: 0x0, symName: __ZNSt3__112basic_stringIcNS_11char_traitsIcEENS_9allocatorIcEEE5clearB8ue170006Ev, symObjAddr: 0x27E4, symBinAddr: 0x100004854, symSize: 0x78 }
  - { offsetInCU: 0xD858, offset: 0x12BC4, size: 0x8, addend: 0x0, symName: __ZNKSt3__112basic_stringIcNS_11char_traitsIcEENS_9allocatorIcEEE8max_sizeB8ue170006Ev, symObjAddr: 0x285C, symBinAddr: 0x1000048CC, symSize: 0xAC }
  - { offsetInCU: 0xD8AA, offset: 0x12C16, size: 0x8, addend: 0x0, symName: __ZNSt3__114numeric_limitsIlE3maxB8ue170006Ev, symObjAddr: 0x2908, symBinAddr: 0x100004978, symSize: 0x14 }
  - { offsetInCU: 0xD8BE, offset: 0x12C2A, size: 0x8, addend: 0x0, symName: __ZNSt3__115basic_streambufIcNS_11char_traitsIcEEE5sgetcB8ue170006Ev, symObjAddr: 0x291C, symBinAddr: 0x10000498C, symSize: 0x70 }
  - { offsetInCU: 0xD8E3, offset: 0x12C4F, size: 0x8, addend: 0x0, symName: __ZNSt3__111char_traitsIcE12to_char_typeB8ue170006Ei, symObjAddr: 0x298C, symBinAddr: 0x1000049FC, symSize: 0x18 }
  - { offsetInCU: 0xD906, offset: 0x12C72, size: 0x8, addend: 0x0, symName: __ZNKSt3__15ctypeIcE2isB8ue170006Ejc, symObjAddr: 0x29A4, symBinAddr: 0x100004A14, symSize: 0x7C }
  - { offsetInCU: 0xD949, offset: 0x12CB5, size: 0x8, addend: 0x0, symName: __ZNSt3__115basic_streambufIcNS_11char_traitsIcEEE6sbumpcB8ue170006Ev, symObjAddr: 0x2A20, symBinAddr: 0x100004A90, symSize: 0x78 }
  - { offsetInCU: 0xD96E, offset: 0x12CDA, size: 0x8, addend: 0x0, symName: __ZNSt3__18ios_base18__setstate_nothrowB8ue170006Ej, symObjAddr: 0x2A98, symBinAddr: 0x100004B08, symSize: 0x64 }
  - { offsetInCU: 0xD9A2, offset: 0x12D0E, size: 0x8, addend: 0x0, symName: __ZNKSt3__19basic_iosIcNS_11char_traitsIcEEE10exceptionsB8ue170006Ev, symObjAddr: 0x2AFC, symBinAddr: 0x100004B6C, symSize: 0x24 }
  - { offsetInCU: 0xD9C7, offset: 0x12D33, size: 0x8, addend: 0x0, symName: __ZNSt3__111char_traitsIcE6assignB8ue170006ERcRKc, symObjAddr: 0x2B20, symBinAddr: 0x100004B90, symSize: 0x24 }
  - { offsetInCU: 0xD9F8, offset: 0x12D64, size: 0x8, addend: 0x0, symName: __ZNSt3__112basic_stringIcNS_11char_traitsIcEENS_9allocatorIcEEE18__get_long_pointerB8ue170006Ev, symObjAddr: 0x2B44, symBinAddr: 0x100004BB4, symSize: 0x28 }
  - { offsetInCU: 0xDA1D, offset: 0x12D89, size: 0x8, addend: 0x0, symName: __ZNSt3__112basic_stringIcNS_11char_traitsIcEENS_9allocatorIcEEE15__set_long_sizeB8ue170006Em, symObjAddr: 0x2B6C, symBinAddr: 0x100004BDC, symSize: 0x38 }
  - { offsetInCU: 0xDA51, offset: 0x12DBD, size: 0x8, addend: 0x0, symName: __ZNSt3__112basic_stringIcNS_11char_traitsIcEENS_9allocatorIcEEE19__get_short_pointerB8ue170006Ev, symObjAddr: 0x2BA4, symBinAddr: 0x100004C14, symSize: 0x28 }
  - { offsetInCU: 0xDA76, offset: 0x12DE2, size: 0x8, addend: 0x0, symName: __ZNSt3__112basic_stringIcNS_11char_traitsIcEENS_9allocatorIcEEE16__set_short_sizeB8ue170006Em, symObjAddr: 0x2BCC, symBinAddr: 0x100004C3C, symSize: 0x78 }
  - { offsetInCU: 0xDAAA, offset: 0x12E16, size: 0x8, addend: 0x0, symName: __ZNSt3__114pointer_traitsIPcE10pointer_toB8ue170006ERc, symObjAddr: 0x2C44, symBinAddr: 0x100004CB4, symSize: 0x14 }
  - { offsetInCU: 0xDAD7, offset: 0x12E43, size: 0x8, addend: 0x0, symName: __ZNSt3__116allocator_traitsINS_9allocatorIcEEE8max_sizeB8ue170006IS2_vEEmRKS2_, symObjAddr: 0x2C58, symBinAddr: 0x100004CC8, symSize: 0x24 }
  - { offsetInCU: 0xDB05, offset: 0x12E71, size: 0x8, addend: 0x0, symName: __ZNKSt3__112basic_stringIcNS_11char_traitsIcEENS_9allocatorIcEEE7__allocB8ue170006Ev, symObjAddr: 0x2C7C, symBinAddr: 0x100004CEC, symSize: 0x24 }
  - { offsetInCU: 0xDB2A, offset: 0x12E96, size: 0x8, addend: 0x0, symName: __ZNSt3__114numeric_limitsImE3maxB8ue170006Ev, symObjAddr: 0x2CA0, symBinAddr: 0x100004D10, symSize: 0x14 }
  - { offsetInCU: 0xDB3E, offset: 0x12EAA, size: 0x8, addend: 0x0, symName: __ZNKSt3__19allocatorIcE8max_sizeB8ue170006Ev, symObjAddr: 0x2CB4, symBinAddr: 0x100004D24, symSize: 0x14 }
  - { offsetInCU: 0xDB63, offset: 0x12ECF, size: 0x8, addend: 0x0, symName: __ZNKSt3__117__compressed_pairINS_12basic_stringIcNS_11char_traitsIcEENS_9allocatorIcEEE5__repES5_E6secondB8ue170006Ev, symObjAddr: 0x2CC8, symBinAddr: 0x100004D38, symSize: 0x24 }
  - { offsetInCU: 0xDB88, offset: 0x12EF4, size: 0x8, addend: 0x0, symName: __ZNKSt3__122__compressed_pair_elemINS_9allocatorIcEELi1ELb1EE5__getB8ue170006Ev, symObjAddr: 0x2CEC, symBinAddr: 0x100004D5C, symSize: 0x14 }
  - { offsetInCU: 0xDBAD, offset: 0x12F19, size: 0x8, addend: 0x0, symName: __ZNSt3__123__libcpp_numeric_limitsImLb1EE3maxB8ue170006Ev, symObjAddr: 0x2D00, symBinAddr: 0x100004D70, symSize: 0x8 }
  - { offsetInCU: 0xDBC1, offset: 0x12F2D, size: 0x8, addend: 0x0, symName: __ZNSt3__123__libcpp_numeric_limitsIlLb1EE3maxB8ue170006Ev, symObjAddr: 0x2D08, symBinAddr: 0x100004D78, symSize: 0x8 }
  - { offsetInCU: 0xDBD5, offset: 0x12F41, size: 0x8, addend: 0x0, symName: __ZNSt3__111char_traitsIcE11to_int_typeB8ue170006Ec, symObjAddr: 0x2D10, symBinAddr: 0x100004D80, symSize: 0x14 }
  - { offsetInCU: 0xDBF8, offset: 0x12F64, size: 0x8, addend: 0x0, symName: __Z7isasciii, symObjAddr: 0x2D24, symBinAddr: 0x100004D94, symSize: 0x24 }
  - { offsetInCU: 0xDC25, offset: 0x12F91, size: 0x8, addend: 0x0, symName: __ZNKSt3__18ios_base10exceptionsB8ue170006Ev, symObjAddr: 0x2D48, symBinAddr: 0x100004DB8, symSize: 0x18 }
  - { offsetInCU: 0x4793, offset: 0x17812, size: 0x8, addend: 0x0, symName: __ZN4ItemC2ERKNSt3__112basic_stringIcNS0_11char_traitsIcEENS0_9allocatorIcEEEES8_, symObjAddr: 0x0, symBinAddr: 0x100004DD0, symSize: 0x70 }
  - { offsetInCU: 0x47D9, offset: 0x17858, size: 0x8, addend: 0x0, symName: __ZN4ItemC1ERKNSt3__112basic_stringIcNS0_11char_traitsIcEENS0_9allocatorIcEEEES8_, symObjAddr: 0x70, symBinAddr: 0x100004E40, symSize: 0x3C }
  - { offsetInCU: 0x481F, offset: 0x1789E, size: 0x8, addend: 0x0, symName: __ZNK4Item7getNameEv, symObjAddr: 0xAC, symBinAddr: 0x100004E7C, symSize: 0x38 }
  - { offsetInCU: 0x4846, offset: 0x178C5, size: 0x8, addend: 0x0, symName: __ZNK4Item14getDescriptionEv, symObjAddr: 0xE4, symBinAddr: 0x100004EB4, symSize: 0x3C }
  - { offsetInCU: 0x486D, offset: 0x178EC, size: 0x8, addend: 0x0, symName: __ZN4Item3useEv, symObjAddr: 0x120, symBinAddr: 0x100004EF0, symSize: 0x4C }
  - { offsetInCU: 0x4711, offset: 0x1C02E, size: 0x8, addend: 0x0, symName: __ZN7MonsterC2ERKNSt3__112basic_stringIcNS0_11char_traitsIcEENS0_9allocatorIcEEEEii, symObjAddr: 0x0, symBinAddr: 0x100004F3C, symSize: 0x5C }
  - { offsetInCU: 0x4765, offset: 0x1C082, size: 0x8, addend: 0x0, symName: __ZN7MonsterC1ERKNSt3__112basic_stringIcNS0_11char_traitsIcEENS0_9allocatorIcEEEEii, symObjAddr: 0x5C, symBinAddr: 0x100004F98, symSize: 0x44 }
  - { offsetInCU: 0x47B9, offset: 0x1C0D6, size: 0x8, addend: 0x0, symName: __ZNK7Monster12displayStatsEv, symObjAddr: 0xA0, symBinAddr: 0x100004FDC, symSize: 0x80 }
  - { offsetInCU: 0x47E0, offset: 0x1C0FD, size: 0x8, addend: 0x0, symName: __ZN7Monster10takeDamageEi, symObjAddr: 0x238, symBinAddr: 0x10000505C, symSize: 0x4C }
  - { offsetInCU: 0x4814, offset: 0x1C131, size: 0x8, addend: 0x0, symName: __ZNK7Monster14getAttackPowerEv, symObjAddr: 0x284, symBinAddr: 0x1000050A8, symSize: 0x18 }
  - { offsetInCU: 0x483A, offset: 0x1C157, size: 0x8, addend: 0x0, symName: __ZNK7Monster7getNameEv, symObjAddr: 0x29C, symBinAddr: 0x1000050C0, symSize: 0x3C }
  - { offsetInCU: 0x60F4, offset: 0x2227B, size: 0x8, addend: 0x0, symName: __ZNSt3__1neB8ue170006IPK4ItemEEbRKNS_11__wrap_iterIT_EES8_, symObjAddr: 0x87C, symBinAddr: 0x100005860, symSize: 0x34 }
  - { offsetInCU: 0x6137, offset: 0x222BE, size: 0x8, addend: 0x0, symName: __ZNSt3__1eqB8ue170006IPK4ItemEEbRKNS_11__wrap_iterIT_EES8_, symObjAddr: 0x920, symBinAddr: 0x100005904, symSize: 0x48 }
  - { offsetInCU: 0x617A, offset: 0x22301, size: 0x8, addend: 0x0, symName: __ZNSt3__13maxB8ue170006ImEERKT_S3_S3_, symObjAddr: 0x1D9C, symBinAddr: 0x100006108, symSize: 0x2C }
  - { offsetInCU: 0x61BD, offset: 0x22344, size: 0x8, addend: 0x0, symName: __ZNSt3__13minB8ue170006ImEERKT_S3_S3_, symObjAddr: 0x1DC8, symBinAddr: 0x100006134, symSize: 0x2C }
  - { offsetInCU: 0x6200, offset: 0x22387, size: 0x8, addend: 0x0, symName: __ZNSt3__13minB8ue170006ImNS_6__lessIvvEEEERKT_S5_S5_T0_, symObjAddr: 0x1E54, symBinAddr: 0x1000061AC, symSize: 0x54 }
  - { offsetInCU: 0x62A1, offset: 0x22428, size: 0x8, addend: 0x0, symName: __ZNSt3__120__throw_length_errorB8ue170006EPKc, symObjAddr: 0x1F34, symBinAddr: 0x100006284, symSize: 0x64 }
  - { offsetInCU: 0x62CC, offset: 0x22453, size: 0x8, addend: 0x0, symName: __ZNSt3__13maxB8ue170006ImNS_6__lessIvvEEEERKT_S5_S5_T0_, symObjAddr: 0x2078, symBinAddr: 0x100006368, symSize: 0x54 }
  - { offsetInCU: 0x6326, offset: 0x224AD, size: 0x8, addend: 0x0, symName: __ZNSt3__119__allocate_at_leastB8ue170006INS_9allocatorI4ItemEEEENS_19__allocation_resultINS_16allocator_traitsIT_E7pointerEEERS6_m, symObjAddr: 0x21E8, symBinAddr: 0x1000064D8, symSize: 0x40 }
  - { offsetInCU: 0x6369, offset: 0x224F0, size: 0x8, addend: 0x0, symName: __ZNSt3__117__libcpp_allocateB8ue170006Emm, symObjAddr: 0x2370, symBinAddr: 0x100006660, symSize: 0x28 }
  - { offsetInCU: 0x63A6, offset: 0x2252D, size: 0x8, addend: 0x0, symName: __ZNSt3__121__libcpp_operator_newB8ue170006IJmEEEPvDpT_, symObjAddr: 0x2398, symBinAddr: 0x100006688, symSize: 0x24 }
  - { offsetInCU: 0x63DF, offset: 0x22566, size: 0x8, addend: 0x0, symName: __ZNSt3__142__uninitialized_allocator_move_if_noexceptB8ue170006INS_9allocatorI4ItemEENS_16reverse_iteratorIPS2_EES6_S6_EET2_RT_T0_T1_S7_, symObjAddr: 0x24F4, symBinAddr: 0x100006710, symSize: 0x12C }
  - { offsetInCU: 0x647F, offset: 0x22606, size: 0x8, addend: 0x0, symName: __ZNSt3__14swapB8ue170006IP4ItemEENS_9enable_ifIXaasr21is_move_constructibleIT_EE5valuesr18is_move_assignableIS4_EE5valueEvE4typeERS4_S7_, symObjAddr: 0x266C, symBinAddr: 0x100006888, symSize: 0x3C }
  - { offsetInCU: 0x64D1, offset: 0x22658, size: 0x8, addend: 0x0, symName: __ZNSt3__122__make_exception_guardB8ue170006INS_29_AllocatorDestroyRangeReverseINS_9allocatorI4ItemEENS_16reverse_iteratorIPS3_EEEEEENS_28__exception_guard_exceptionsIT_EESA_, symObjAddr: 0x27B8, symBinAddr: 0x10000698C, symSize: 0x4C }
  - { offsetInCU: 0x6507, offset: 0x2268E, size: 0x8, addend: 0x0, symName: __ZNSt3__1neB8ue170006IP4ItemS2_EEbRKNS_16reverse_iteratorIT_EERKNS3_IT0_EE, symObjAddr: 0x2848, symBinAddr: 0x100006A1C, symSize: 0x48 }
  - { offsetInCU: 0x6553, offset: 0x226DA, size: 0x8, addend: 0x0, symName: __ZNSt3__112__to_addressB8ue170006INS_16reverse_iteratorIP4ItemEEvEEu7__decayIDTclsr19__to_address_helperIT_EE6__callclsr3stdE7declvalIRKS5_EEEEES7_, symObjAddr: 0x28C4, symBinAddr: 0x100006A98, symSize: 0x24 }
  - { offsetInCU: 0x65B3, offset: 0x2273A, size: 0x8, addend: 0x0, symName: __ZNSt3__119__allocator_destroyB8ue170006INS_9allocatorI4ItemEENS_16reverse_iteratorINS4_IPS2_EEEES7_EEvRT_T0_T1_, symObjAddr: 0x2D1C, symBinAddr: 0x100006E78, symSize: 0x70 }
  - { offsetInCU: 0x6618, offset: 0x2279F, size: 0x8, addend: 0x0, symName: __ZNSt3__1neB8ue170006INS_16reverse_iteratorIP4ItemEES4_EEbRKNS1_IT_EERKNS1_IT0_EE, symObjAddr: 0x2DC8, symBinAddr: 0x100006F24, symSize: 0x60 }
  - { offsetInCU: 0x6664, offset: 0x227EB, size: 0x8, addend: 0x0, symName: __ZNSt3__112__to_addressB8ue170006INS_16reverse_iteratorINS1_IP4ItemEEEEvEEu7__decayIDTclsr19__to_address_helperIT_EE6__callclsr3stdE7declvalIRKS6_EEEEES8_, symObjAddr: 0x2E54, symBinAddr: 0x100006F84, symSize: 0x24 }
  - { offsetInCU: 0x68A5, offset: 0x22A2C, size: 0x8, addend: 0x0, symName: __ZSt28__throw_bad_array_new_lengthB8ue170006v, symObjAddr: 0x233C, symBinAddr: 0x10000662C, symSize: 0x34 }
  - { offsetInCU: 0x6C7A, offset: 0x22E01, size: 0x8, addend: 0x0, symName: __ZNSt3__16vectorI4ItemNS_9allocatorIS1_EEE26__swap_out_circular_bufferERNS_14__split_bufferIS1_RS3_EE, symObjAddr: 0x1BA4, symBinAddr: 0x100005F50, symSize: 0x110 }
  - { offsetInCU: 0x8F38, offset: 0x250BF, size: 0x8, addend: 0x0, symName: __ZN6PlayerC2ERKNSt3__112basic_stringIcNS0_11char_traitsIcEENS0_9allocatorIcEEEEii, symObjAddr: 0x0, symBinAddr: 0x1000050FC, symSize: 0x6C }
  - { offsetInCU: 0x8F8C, offset: 0x25113, size: 0x8, addend: 0x0, symName: __ZNSt3__16vectorI4ItemNS_9allocatorIS1_EEEC1B8ue170006Ev, symObjAddr: 0x6C, symBinAddr: 0x100005168, symSize: 0x2C }
  - { offsetInCU: 0x8FB5, offset: 0x2513C, size: 0x8, addend: 0x0, symName: __ZN6PlayerC1ERKNSt3__112basic_stringIcNS0_11char_traitsIcEENS0_9allocatorIcEEEEii, symObjAddr: 0x98, symBinAddr: 0x100005194, symSize: 0x44 }
  - { offsetInCU: 0x9009, offset: 0x25190, size: 0x8, addend: 0x0, symName: __ZN6Player4moveERKNSt3__112basic_stringIcNS0_11char_traitsIcEENS0_9allocatorIcEEEE, symObjAddr: 0xDC, symBinAddr: 0x1000051D8, symSize: 0x120 }
  - { offsetInCU: 0x9053, offset: 0x251DA, size: 0x8, addend: 0x0, symName: __ZN6Player6pickUpER4Item, symObjAddr: 0x314, symBinAddr: 0x1000052F8, symSize: 0xA8 }
  - { offsetInCU: 0x9087, offset: 0x2520E, size: 0x8, addend: 0x0, symName: __ZNSt3__16vectorI4ItemNS_9allocatorIS1_EEE9push_backB8ue170006ERKS1_, symObjAddr: 0x3BC, symBinAddr: 0x1000053A0, symSize: 0x6C }
  - { offsetInCU: 0x90BE, offset: 0x25245, size: 0x8, addend: 0x0, symName: __ZN6Player6engageER7Monster, symObjAddr: 0x428, symBinAddr: 0x10000540C, symSize: 0x198 }
  - { offsetInCU: 0x90F3, offset: 0x2527A, size: 0x8, addend: 0x0, symName: __ZN6Player10takeDamageEi, symObjAddr: 0x5C0, symBinAddr: 0x1000055A4, symSize: 0x4C }
  - { offsetInCU: 0x9127, offset: 0x252AE, size: 0x8, addend: 0x0, symName: __ZN6Player4healEi, symObjAddr: 0x60C, symBinAddr: 0x1000055F0, symSize: 0x28 }
  - { offsetInCU: 0x915B, offset: 0x252E2, size: 0x8, addend: 0x0, symName: __ZNK6Player12displayStatsEv, symObjAddr: 0x634, symBinAddr: 0x100005618, symSize: 0x80 }
  - { offsetInCU: 0x9182, offset: 0x25309, size: 0x8, addend: 0x0, symName: __ZNK6Player16displayInventoryEv, symObjAddr: 0x6B4, symBinAddr: 0x100005698, symSize: 0x168 }
  - { offsetInCU: 0x91EA, offset: 0x25371, size: 0x8, addend: 0x0, symName: __ZNKSt3__16vectorI4ItemNS_9allocatorIS1_EEE5beginB8ue170006Ev, symObjAddr: 0x81C, symBinAddr: 0x100005800, symSize: 0x30 }
  - { offsetInCU: 0x9211, offset: 0x25398, size: 0x8, addend: 0x0, symName: __ZNKSt3__16vectorI4ItemNS_9allocatorIS1_EEE3endB8ue170006Ev, symObjAddr: 0x84C, symBinAddr: 0x100005830, symSize: 0x30 }
  - { offsetInCU: 0x9239, offset: 0x253C0, size: 0x8, addend: 0x0, symName: __ZNKSt3__111__wrap_iterIPK4ItemEdeB8ue170006Ev, symObjAddr: 0x8B0, symBinAddr: 0x100005894, symSize: 0x18 }
  - { offsetInCU: 0x925E, offset: 0x253E5, size: 0x8, addend: 0x0, symName: __ZNSt3__111__wrap_iterIPK4ItemEppB8ue170006Ev, symObjAddr: 0x8C8, symBinAddr: 0x1000058AC, symSize: 0x20 }
  - { offsetInCU: 0x9283, offset: 0x2540A, size: 0x8, addend: 0x0, symName: __ZN6Player11setLocationEP4Room, symObjAddr: 0x8E8, symBinAddr: 0x1000058CC, symSize: 0x20 }
  - { offsetInCU: 0x92B7, offset: 0x2543E, size: 0x8, addend: 0x0, symName: __ZNK6Player11getLocationEv, symObjAddr: 0x908, symBinAddr: 0x1000058EC, symSize: 0x18 }
  - { offsetInCU: 0x92DD, offset: 0x25464, size: 0x8, addend: 0x0, symName: __ZNKSt3__111__wrap_iterIPK4ItemE4baseB8ue170006Ev, symObjAddr: 0x968, symBinAddr: 0x10000594C, symSize: 0x18 }
  - { offsetInCU: 0x9302, offset: 0x25489, size: 0x8, addend: 0x0, symName: __ZNSt3__16vectorI4ItemNS_9allocatorIS1_EEEC2B8ue170006Ev, symObjAddr: 0x980, symBinAddr: 0x100005964, symSize: 0x4C }
  - { offsetInCU: 0x9335, offset: 0x254BC, size: 0x8, addend: 0x0, symName: __ZNSt3__117__compressed_pairIP4ItemNS_9allocatorIS1_EEEC1B8ue170006IDnNS_18__default_init_tagEEEOT_OT0_, symObjAddr: 0x9CC, symBinAddr: 0x1000059B0, symSize: 0x3C }
  - { offsetInCU: 0x938C, offset: 0x25513, size: 0x8, addend: 0x0, symName: __ZNSt3__117__compressed_pairIP4ItemNS_9allocatorIS1_EEEC2B8ue170006IDnNS_18__default_init_tagEEEOT_OT0_, symObjAddr: 0xA14, symBinAddr: 0x1000059EC, symSize: 0x40 }
  - { offsetInCU: 0x93E3, offset: 0x2556A, size: 0x8, addend: 0x0, symName: __ZNSt3__122__compressed_pair_elemIP4ItemLi0ELb0EEC2B8ue170006IDnvEEOT_, symObjAddr: 0xA54, symBinAddr: 0x100005A2C, symSize: 0x1C }
  - { offsetInCU: 0x9424, offset: 0x255AB, size: 0x8, addend: 0x0, symName: __ZNSt3__122__compressed_pair_elemINS_9allocatorI4ItemEELi1ELb1EEC2B8ue170006ENS_18__default_init_tagE, symObjAddr: 0xA70, symBinAddr: 0x100005A48, symSize: 0x2C }
  - { offsetInCU: 0x9458, offset: 0x255DF, size: 0x8, addend: 0x0, symName: __ZNSt3__19allocatorI4ItemEC2B8ue170006Ev, symObjAddr: 0xA9C, symBinAddr: 0x100005A74, symSize: 0x2C }
  - { offsetInCU: 0x9481, offset: 0x25608, size: 0x8, addend: 0x0, symName: __ZNSt3__116__non_trivial_ifILb1ENS_9allocatorI4ItemEEEC2B8ue170006Ev, symObjAddr: 0xAC8, symBinAddr: 0x100005AA0, symSize: 0x14 }
  - { offsetInCU: 0x94AA, offset: 0x25631, size: 0x8, addend: 0x0, symName: __ZNSt3__16vectorI4ItemNS_9allocatorIS1_EEE9__end_capB8ue170006Ev, symObjAddr: 0x166C, symBinAddr: 0x100005AB4, symSize: 0x28 }
  - { offsetInCU: 0x94CF, offset: 0x25656, size: 0x8, addend: 0x0, symName: __ZNSt3__16vectorI4ItemNS_9allocatorIS1_EEE22__construct_one_at_endB8ue170006IJRKS1_EEEvDpOT_, symObjAddr: 0x1694, symBinAddr: 0x100005ADC, symSize: 0x90 }
  - { offsetInCU: 0x951C, offset: 0x256A3, size: 0x8, addend: 0x0, symName: __ZNSt3__16vectorI4ItemNS_9allocatorIS1_EEE21__push_back_slow_pathIRKS1_EEvOT_, symObjAddr: 0x1724, symBinAddr: 0x100005B6C, symSize: 0xD8 }
  - { offsetInCU: 0x957A, offset: 0x25701, size: 0x8, addend: 0x0, symName: __ZNSt3__117__compressed_pairIP4ItemNS_9allocatorIS1_EEE5firstB8ue170006Ev, symObjAddr: 0x17FC, symBinAddr: 0x100005C44, symSize: 0x24 }
  - { offsetInCU: 0x959F, offset: 0x25726, size: 0x8, addend: 0x0, symName: __ZNSt3__122__compressed_pair_elemIP4ItemLi0ELb0EE5__getB8ue170006Ev, symObjAddr: 0x1820, symBinAddr: 0x100005C68, symSize: 0x14 }
  - { offsetInCU: 0x95DD, offset: 0x25764, size: 0x8, addend: 0x0, symName: __ZNSt3__16vectorI4ItemNS_9allocatorIS1_EEE21_ConstructTransactionC1B8ue170006ERS4_m, symObjAddr: 0x1834, symBinAddr: 0x100005C7C, symSize: 0x3C }
  - { offsetInCU: 0x9624, offset: 0x257AB, size: 0x8, addend: 0x0, symName: __ZNSt3__116allocator_traitsINS_9allocatorI4ItemEEE9constructB8ue170006IS2_JRKS2_EvEEvRS3_PT_DpOT0_, symObjAddr: 0x1870, symBinAddr: 0x100005CB8, symSize: 0x34 }
  - { offsetInCU: 0x967B, offset: 0x25802, size: 0x8, addend: 0x0, symName: __ZNSt3__16vectorI4ItemNS_9allocatorIS1_EEE21_ConstructTransactionD1B8ue170006Ev, symObjAddr: 0x18E0, symBinAddr: 0x100005CEC, symSize: 0x2C }
  - { offsetInCU: 0x96A4, offset: 0x2582B, size: 0x8, addend: 0x0, symName: __ZNSt3__16vectorI4ItemNS_9allocatorIS1_EEE21_ConstructTransactionC2B8ue170006ERS4_m, symObjAddr: 0x190C, symBinAddr: 0x100005D18, symSize: 0x4C }
  - { offsetInCU: 0x96EB, offset: 0x25872, size: 0x8, addend: 0x0, symName: __ZNSt3__19allocatorI4ItemE9constructB8ue170006IS1_JRKS1_EEEvPT_DpOT0_, symObjAddr: 0x1958, symBinAddr: 0x100005D64, symSize: 0x30 }
  - { offsetInCU: 0x9740, offset: 0x258C7, size: 0x8, addend: 0x0, symName: __ZN4ItemC1ERKS_, symObjAddr: 0x1988, symBinAddr: 0x100005D94, symSize: 0x34 }
  - { offsetInCU: 0x9773, offset: 0x258FA, size: 0x8, addend: 0x0, symName: __ZN4ItemC2ERKS_, symObjAddr: 0x19BC, symBinAddr: 0x100005DC8, symSize: 0x70 }
  - { offsetInCU: 0x97A6, offset: 0x2592D, size: 0x8, addend: 0x0, symName: __ZNSt3__16vectorI4ItemNS_9allocatorIS1_EEE21_ConstructTransactionD2B8ue170006Ev, symObjAddr: 0x1A64, symBinAddr: 0x100005E38, symSize: 0x20 }
  - { offsetInCU: 0x97CE, offset: 0x25955, size: 0x8, addend: 0x0, symName: __ZNKSt3__16vectorI4ItemNS_9allocatorIS1_EEE11__recommendB8ue170006Em, symObjAddr: 0x1A84, symBinAddr: 0x100005E58, symSize: 0xB4 }
  - { offsetInCU: 0x9823, offset: 0x259AA, size: 0x8, addend: 0x0, symName: __ZNSt3__114__split_bufferI4ItemRNS_9allocatorIS1_EEEC1EmmS4_, symObjAddr: 0x1B60, symBinAddr: 0x100005F0C, symSize: 0x44 }
  - { offsetInCU: 0x9878, offset: 0x259FF, size: 0x8, addend: 0x0, symName: __ZNSt3__114__split_bufferI4ItemRNS_9allocatorIS1_EEED1Ev, symObjAddr: 0x1CB4, symBinAddr: 0x100006060, symSize: 0x2C }
  - { offsetInCU: 0x98A2, offset: 0x25A29, size: 0x8, addend: 0x0, symName: __ZNKSt3__16vectorI4ItemNS_9allocatorIS1_EEE8max_sizeEv, symObjAddr: 0x1CE0, symBinAddr: 0x10000608C, symSize: 0x60 }
  - { offsetInCU: 0x98CA, offset: 0x25A51, size: 0x8, addend: 0x0, symName: __ZNKSt3__16vectorI4ItemNS_9allocatorIS1_EEE20__throw_length_errorB8ue170006Ev, symObjAddr: 0x1D40, symBinAddr: 0x1000060EC, symSize: 0x1C }
  - { offsetInCU: 0x98F9, offset: 0x25A80, size: 0x8, addend: 0x0, symName: __ZNSt3__116allocator_traitsINS_9allocatorI4ItemEEE8max_sizeB8ue170006IS3_vEEmRKS3_, symObjAddr: 0x1DF4, symBinAddr: 0x100006160, symSize: 0x24 }
  - { offsetInCU: 0x9927, offset: 0x25AAE, size: 0x8, addend: 0x0, symName: __ZNKSt3__16vectorI4ItemNS_9allocatorIS1_EEE7__allocB8ue170006Ev, symObjAddr: 0x1E18, symBinAddr: 0x100006184, symSize: 0x28 }
  - { offsetInCU: 0x9956, offset: 0x25ADD, size: 0x8, addend: 0x0, symName: __ZNKSt3__16__lessIvvEclB8ue170006ImmEEbRKT_RKT0_, symObjAddr: 0x1EA8, symBinAddr: 0x100006200, symSize: 0x34 }
  - { offsetInCU: 0x99A9, offset: 0x25B30, size: 0x8, addend: 0x0, symName: __ZNKSt3__19allocatorI4ItemE8max_sizeB8ue170006Ev, symObjAddr: 0x1EDC, symBinAddr: 0x100006234, symSize: 0x18 }
  - { offsetInCU: 0x99CE, offset: 0x25B55, size: 0x8, addend: 0x0, symName: __ZNKSt3__117__compressed_pairIP4ItemNS_9allocatorIS1_EEE6secondB8ue170006Ev, symObjAddr: 0x1EF4, symBinAddr: 0x10000624C, symSize: 0x24 }
  - { offsetInCU: 0x99F3, offset: 0x25B7A, size: 0x8, addend: 0x0, symName: __ZNKSt3__122__compressed_pair_elemINS_9allocatorI4ItemEELi1ELb1EE5__getB8ue170006Ev, symObjAddr: 0x1F18, symBinAddr: 0x100006270, symSize: 0x14 }
  - { offsetInCU: 0x9A18, offset: 0x25B9F, size: 0x8, addend: 0x0, symName: __ZNSt12length_errorC1B8ue170006EPKc, symObjAddr: 0x1F98, symBinAddr: 0x1000062E8, symSize: 0x34 }
  - { offsetInCU: 0x9A4F, offset: 0x25BD6, size: 0x8, addend: 0x0, symName: __ZNSt12length_errorC2B8ue170006EPKc, symObjAddr: 0x1FCC, symBinAddr: 0x10000631C, symSize: 0x4C }
  - { offsetInCU: 0x9A86, offset: 0x25C0D, size: 0x8, addend: 0x0, symName: __ZNSt3__114__split_bufferI4ItemRNS_9allocatorIS1_EEEC2EmmS4_, symObjAddr: 0x20CC, symBinAddr: 0x1000063BC, symSize: 0xE0 }
  - { offsetInCU: 0x9AF9, offset: 0x25C80, size: 0x8, addend: 0x0, symName: __ZNSt3__117__compressed_pairIP4ItemRNS_9allocatorIS1_EEEC1B8ue170006IDnS5_EEOT_OT0_, symObjAddr: 0x21AC, symBinAddr: 0x10000649C, symSize: 0x3C }
  - { offsetInCU: 0x9B50, offset: 0x25CD7, size: 0x8, addend: 0x0, symName: __ZNSt3__114__split_bufferI4ItemRNS_9allocatorIS1_EEE7__allocB8ue170006Ev, symObjAddr: 0x2228, symBinAddr: 0x100006518, symSize: 0x28 }
  - { offsetInCU: 0x9B75, offset: 0x25CFC, size: 0x8, addend: 0x0, symName: __ZNSt3__114__split_bufferI4ItemRNS_9allocatorIS1_EEE9__end_capB8ue170006Ev, symObjAddr: 0x2250, symBinAddr: 0x100006540, symSize: 0x28 }
  - { offsetInCU: 0x9B9A, offset: 0x25D21, size: 0x8, addend: 0x0, symName: __ZNSt3__117__compressed_pairIP4ItemRNS_9allocatorIS1_EEEC2B8ue170006IDnS5_EEOT_OT0_, symObjAddr: 0x2278, symBinAddr: 0x100006568, symSize: 0x48 }
  - { offsetInCU: 0x9BF1, offset: 0x25D78, size: 0x8, addend: 0x0, symName: __ZNSt3__122__compressed_pair_elemIRNS_9allocatorI4ItemEELi1ELb0EEC2B8ue170006IS4_vEEOT_, symObjAddr: 0x22C0, symBinAddr: 0x1000065B0, symSize: 0x20 }
  - { offsetInCU: 0x9C32, offset: 0x25DB9, size: 0x8, addend: 0x0, symName: __ZNSt3__19allocatorI4ItemE8allocateB8ue170006Em, symObjAddr: 0x22E0, symBinAddr: 0x1000065D0, symSize: 0x5C }
  - { offsetInCU: 0x9C65, offset: 0x25DEC, size: 0x8, addend: 0x0, symName: __ZNSt3__117__compressed_pairIP4ItemRNS_9allocatorIS1_EEE6secondB8ue170006Ev, symObjAddr: 0x23BC, symBinAddr: 0x1000066AC, symSize: 0x28 }
  - { offsetInCU: 0x9C8A, offset: 0x25E11, size: 0x8, addend: 0x0, symName: __ZNSt3__122__compressed_pair_elemIRNS_9allocatorI4ItemEELi1ELb0EE5__getB8ue170006Ev, symObjAddr: 0x23E4, symBinAddr: 0x1000066D4, symSize: 0x18 }
  - { offsetInCU: 0x9CAF, offset: 0x25E36, size: 0x8, addend: 0x0, symName: __ZNSt3__117__compressed_pairIP4ItemRNS_9allocatorIS1_EEE5firstB8ue170006Ev, symObjAddr: 0x23FC, symBinAddr: 0x1000066EC, symSize: 0x24 }
  - { offsetInCU: 0x9CD4, offset: 0x25E5B, size: 0x8, addend: 0x0, symName: __ZNSt3__116reverse_iteratorIP4ItemEC1B8ue170006ES2_, symObjAddr: 0x2620, symBinAddr: 0x10000683C, symSize: 0x34 }
  - { offsetInCU: 0x9D0B, offset: 0x25E92, size: 0x8, addend: 0x0, symName: __ZNKSt3__116reverse_iteratorIP4ItemE4baseB8ue170006Ev, symObjAddr: 0x2654, symBinAddr: 0x100006870, symSize: 0x18 }
  - { offsetInCU: 0x9D30, offset: 0x25EB7, size: 0x8, addend: 0x0, symName: __ZNKSt3__16vectorI4ItemNS_9allocatorIS1_EEE14__annotate_newB8ue170006Em, symObjAddr: 0x26A8, symBinAddr: 0x1000068C4, symSize: 0xC8 }
  - { offsetInCU: 0x9D64, offset: 0x25EEB, size: 0x8, addend: 0x0, symName: __ZNSt3__129_AllocatorDestroyRangeReverseINS_9allocatorI4ItemEENS_16reverse_iteratorIPS2_EEEC1B8ue170006ERS3_RS6_S9_, symObjAddr: 0x2804, symBinAddr: 0x1000069D8, symSize: 0x44 }
  - { offsetInCU: 0x9DBF, offset: 0x25F46, size: 0x8, addend: 0x0, symName: __ZNSt3__116allocator_traitsINS_9allocatorI4ItemEEE9constructB8ue170006IS2_JS2_EvEEvRS3_PT_DpOT0_, symObjAddr: 0x2890, symBinAddr: 0x100006A64, symSize: 0x34 }
  - { offsetInCU: 0x9E16, offset: 0x25F9D, size: 0x8, addend: 0x0, symName: __ZNKSt3__116reverse_iteratorIP4ItemEdeB8ue170006Ev, symObjAddr: 0x28E8, symBinAddr: 0x100006ABC, symSize: 0x28 }
  - { offsetInCU: 0x9E4A, offset: 0x25FD1, size: 0x8, addend: 0x0, symName: __ZNSt3__116reverse_iteratorIP4ItemEppB8ue170006Ev, symObjAddr: 0x2910, symBinAddr: 0x100006AE4, symSize: 0x20 }
  - { offsetInCU: 0x9E6F, offset: 0x25FF6, size: 0x8, addend: 0x0, symName: __ZNSt3__128__exception_guard_exceptionsINS_29_AllocatorDestroyRangeReverseINS_9allocatorI4ItemEENS_16reverse_iteratorIPS3_EEEEE10__completeB8ue170006Ev, symObjAddr: 0x2930, symBinAddr: 0x100006B04, symSize: 0x1C }
  - { offsetInCU: 0x9E94, offset: 0x2601B, size: 0x8, addend: 0x0, symName: __ZNSt3__128__exception_guard_exceptionsINS_29_AllocatorDestroyRangeReverseINS_9allocatorI4ItemEENS_16reverse_iteratorIPS3_EEEEED1B8ue170006Ev, symObjAddr: 0x294C, symBinAddr: 0x100006B20, symSize: 0x2C }
  - { offsetInCU: 0x9EBD, offset: 0x26044, size: 0x8, addend: 0x0, symName: __ZNSt3__128__exception_guard_exceptionsINS_29_AllocatorDestroyRangeReverseINS_9allocatorI4ItemEENS_16reverse_iteratorIPS3_EEEEEC1B8ue170006ES8_, symObjAddr: 0x2978, symBinAddr: 0x100006B4C, symSize: 0x34 }
  - { offsetInCU: 0x9EF5, offset: 0x2607C, size: 0x8, addend: 0x0, symName: __ZNSt3__128__exception_guard_exceptionsINS_29_AllocatorDestroyRangeReverseINS_9allocatorI4ItemEENS_16reverse_iteratorIPS3_EEEEEC2B8ue170006ES8_, symObjAddr: 0x29AC, symBinAddr: 0x100006B80, symSize: 0x30 }
  - { offsetInCU: 0x9F2D, offset: 0x260B4, size: 0x8, addend: 0x0, symName: __ZNSt3__129_AllocatorDestroyRangeReverseINS_9allocatorI4ItemEENS_16reverse_iteratorIPS2_EEEC2B8ue170006ERS3_RS6_S9_, symObjAddr: 0x29DC, symBinAddr: 0x100006BB0, symSize: 0x38 }
  - { offsetInCU: 0x9F83, offset: 0x2610A, size: 0x8, addend: 0x0, symName: __ZNSt3__19allocatorI4ItemE9constructB8ue170006IS1_JS1_EEEvPT_DpOT0_, symObjAddr: 0x2A14, symBinAddr: 0x100006BE8, symSize: 0x30 }
  - { offsetInCU: 0x9FD8, offset: 0x2615F, size: 0x8, addend: 0x0, symName: __ZN4ItemC1EOS_, symObjAddr: 0x2A44, symBinAddr: 0x100006C18, symSize: 0x34 }
  - { offsetInCU: 0xA00B, offset: 0x26192, size: 0x8, addend: 0x0, symName: __ZN4ItemC2EOS_, symObjAddr: 0x2A78, symBinAddr: 0x100006C4C, symSize: 0x48 }
  - { offsetInCU: 0xA03E, offset: 0x261C5, size: 0x8, addend: 0x0, symName: __ZNSt3__112basic_stringIcNS_11char_traitsIcEENS_9allocatorIcEEEC1B8ue170006EOS5_, symObjAddr: 0x2AC0, symBinAddr: 0x100006C94, symSize: 0x34 }
  - { offsetInCU: 0xA076, offset: 0x261FD, size: 0x8, addend: 0x0, symName: __ZNSt3__112basic_stringIcNS_11char_traitsIcEENS_9allocatorIcEEEC2B8ue170006EOS5_, symObjAddr: 0x2AF4, symBinAddr: 0x100006CC8, symSize: 0x50 }
  - { offsetInCU: 0xA0B3, offset: 0x2623A, size: 0x8, addend: 0x0, symName: __ZNSt3__119__to_address_helperINS_16reverse_iteratorIP4ItemEEvE6__callB8ue170006ERKS4_, symObjAddr: 0x2BBC, symBinAddr: 0x100006D18, symSize: 0x38 }
  - { offsetInCU: 0xA0D6, offset: 0x2625D, size: 0x8, addend: 0x0, symName: __ZNKSt3__116reverse_iteratorIP4ItemEptB8ue170006Ev, symObjAddr: 0x2BF4, symBinAddr: 0x100006D50, symSize: 0x24 }
  - { offsetInCU: 0xA0FB, offset: 0x26282, size: 0x8, addend: 0x0, symName: __ZNSt3__128__exception_guard_exceptionsINS_29_AllocatorDestroyRangeReverseINS_9allocatorI4ItemEENS_16reverse_iteratorIPS3_EEEEED2B8ue170006Ev, symObjAddr: 0x2C18, symBinAddr: 0x100006D74, symSize: 0x50 }
  - { offsetInCU: 0xA124, offset: 0x262AB, size: 0x8, addend: 0x0, symName: __ZNKSt3__129_AllocatorDestroyRangeReverseINS_9allocatorI4ItemEENS_16reverse_iteratorIPS2_EEEclB8ue170006Ev, symObjAddr: 0x2C68, symBinAddr: 0x100006DC4, symSize: 0xB4 }
  - { offsetInCU: 0xA14A, offset: 0x262D1, size: 0x8, addend: 0x0, symName: __ZNSt3__116reverse_iteratorINS0_IP4ItemEEEC1B8ue170006ES3_, symObjAddr: 0x2D8C, symBinAddr: 0x100006EE8, symSize: 0x3C }
  - { offsetInCU: 0xA181, offset: 0x26308, size: 0x8, addend: 0x0, symName: __ZNSt3__116reverse_iteratorINS0_IP4ItemEEEppB8ue170006Ev, symObjAddr: 0x2E78, symBinAddr: 0x100006FA8, symSize: 0x30 }
  - { offsetInCU: 0xA1A6, offset: 0x2632D, size: 0x8, addend: 0x0, symName: __ZNKSt3__116reverse_iteratorINS0_IP4ItemEEE4baseB8ue170006Ev, symObjAddr: 0x2EA8, symBinAddr: 0x100006FD8, symSize: 0x24 }
  - { offsetInCU: 0xA1D0, offset: 0x26357, size: 0x8, addend: 0x0, symName: __ZNSt3__119__to_address_helperINS_16reverse_iteratorINS1_IP4ItemEEEEvE6__callB8ue170006ERKS5_, symObjAddr: 0x2F58, symBinAddr: 0x100006FFC, symSize: 0x38 }
  - { offsetInCU: 0xA1F3, offset: 0x2637A, size: 0x8, addend: 0x0, symName: __ZNKSt3__116reverse_iteratorINS0_IP4ItemEEEptB8ue170006Ev, symObjAddr: 0x2F90, symBinAddr: 0x100007034, symSize: 0x24 }
  - { offsetInCU: 0xA218, offset: 0x2639F, size: 0x8, addend: 0x0, symName: __ZNKSt3__116reverse_iteratorINS0_IP4ItemEEEdeB8ue170006Ev, symObjAddr: 0x2FB4, symBinAddr: 0x100007058, symSize: 0x34 }
  - { offsetInCU: 0xA24C, offset: 0x263D3, size: 0x8, addend: 0x0, symName: __ZNSt3__116reverse_iteratorIP4ItemEmmB8ue170006Ev, symObjAddr: 0x2FE8, symBinAddr: 0x10000708C, symSize: 0x20 }
  - { offsetInCU: 0xA271, offset: 0x263F8, size: 0x8, addend: 0x0, symName: __ZNSt3__116reverse_iteratorINS0_IP4ItemEEEC2B8ue170006ES3_, symObjAddr: 0x3008, symBinAddr: 0x1000070AC, symSize: 0x2C }
  - { offsetInCU: 0xA2A8, offset: 0x2642F, size: 0x8, addend: 0x0, symName: __ZNSt3__116reverse_iteratorIP4ItemEC2B8ue170006ES2_, symObjAddr: 0x3034, symBinAddr: 0x1000070D8, symSize: 0x28 }
  - { offsetInCU: 0xA2DF, offset: 0x26466, size: 0x8, addend: 0x0, symName: __ZNSt3__114__split_bufferI4ItemRNS_9allocatorIS1_EEED2Ev, symObjAddr: 0x305C, symBinAddr: 0x100007100, symSize: 0x8C }
  - { offsetInCU: 0xA30A, offset: 0x26491, size: 0x8, addend: 0x0, symName: __ZNSt3__114__split_bufferI4ItemRNS_9allocatorIS1_EEE5clearB8ue170006Ev, symObjAddr: 0x30E8, symBinAddr: 0x10000718C, symSize: 0x28 }
  - { offsetInCU: 0xA32F, offset: 0x264B6, size: 0x8, addend: 0x0, symName: __ZNKSt3__114__split_bufferI4ItemRNS_9allocatorIS1_EEE8capacityB8ue170006Ev, symObjAddr: 0x3144, symBinAddr: 0x1000071B4, symSize: 0x40 }
  - { offsetInCU: 0xA354, offset: 0x264DB, size: 0x8, addend: 0x0, symName: __ZNSt3__114__split_bufferI4ItemRNS_9allocatorIS1_EEE17__destruct_at_endB8ue170006EPS1_, symObjAddr: 0x3184, symBinAddr: 0x1000071F4, symSize: 0x2C }
  - { offsetInCU: 0xA386, offset: 0x2650D, size: 0x8, addend: 0x0, symName: __ZNSt3__114__split_bufferI4ItemRNS_9allocatorIS1_EEE17__destruct_at_endB8ue170006EPS1_NS_17integral_constantIbLb0EEE, symObjAddr: 0x31B0, symBinAddr: 0x100007220, symSize: 0x80 }
  - { offsetInCU: 0xA3C7, offset: 0x2654E, size: 0x8, addend: 0x0, symName: __ZNKSt3__114__split_bufferI4ItemRNS_9allocatorIS1_EEE9__end_capB8ue170006Ev, symObjAddr: 0x32F0, symBinAddr: 0x1000072A0, symSize: 0x28 }
  - { offsetInCU: 0xA3EC, offset: 0x26573, size: 0x8, addend: 0x0, symName: __ZNKSt3__117__compressed_pairIP4ItemRNS_9allocatorIS1_EEE5firstB8ue170006Ev, symObjAddr: 0x3318, symBinAddr: 0x1000072C8, symSize: 0x24 }
  - { offsetInCU: 0xA411, offset: 0x26598, size: 0x8, addend: 0x0, symName: __ZNKSt3__16vectorI4ItemNS_9allocatorIS1_EEE11__make_iterB8ue170006EPKS1_, symObjAddr: 0x333C, symBinAddr: 0x1000072EC, symSize: 0x30 }
  - { offsetInCU: 0xA445, offset: 0x265CC, size: 0x8, addend: 0x0, symName: __ZNSt3__111__wrap_iterIPK4ItemEC1B8ue170006ES3_, symObjAddr: 0x336C, symBinAddr: 0x10000731C, symSize: 0x34 }
  - { offsetInCU: 0xA47C, offset: 0x26603, size: 0x8, addend: 0x0, symName: __ZNSt3__111__wrap_iterIPK4ItemEC2B8ue170006ES3_, symObjAddr: 0x33A0, symBinAddr: 0x100007350, symSize: 0x20 }
  - { offsetInCU: 0x5C, offset: 0x2671C, size: 0x8, addend: 0x0, symName: __ZNSt3__1L19piecewise_constructE, symObjAddr: 0x62E3, symBinAddr: 0x10000B04C, symSize: 0x0 }
  - { offsetInCU: 0x7D74, offset: 0x2E434, size: 0x8, addend: 0x0, symName: __ZNSt3__1neB8ue170006ERKNS_20__map_const_iteratorINS_21__tree_const_iteratorINS_12__value_typeINS_12basic_stringIcNS_11char_traitsIcEENS_9allocatorIcEEEEP4RoomEEPNS_11__tree_nodeISB_PvEElEEEESJ_, symObjAddr: 0x370, symBinAddr: 0x100007648, symSize: 0x30 }
  - { offsetInCU: 0x7DB1, offset: 0x2E471, size: 0x8, addend: 0x0, symName: __ZNSt3__119__allocate_at_leastB8ue170006INS_9allocatorI7MonsterEEEENS_19__allocation_resultINS_16allocator_traitsIT_E7pointerEEERS6_m, symObjAddr: 0x3174, symBinAddr: 0x1000084D0, symSize: 0x40 }
  - { offsetInCU: 0x7DF4, offset: 0x2E4B4, size: 0x8, addend: 0x0, symName: __ZNSt3__142__uninitialized_allocator_move_if_noexceptB8ue170006INS_9allocatorI7MonsterEENS_16reverse_iteratorIPS2_EES6_S6_EET2_RT_T0_T1_S7_, symObjAddr: 0x3400, symBinAddr: 0x100008688, symSize: 0x12C }
  - { offsetInCU: 0x7E94, offset: 0x2E554, size: 0x8, addend: 0x0, symName: __ZNSt3__14swapB8ue170006IP7MonsterEENS_9enable_ifIXaasr21is_move_constructibleIT_EE5valuesr18is_move_assignableIS4_EE5valueEvE4typeERS4_S7_, symObjAddr: 0x3578, symBinAddr: 0x100008800, symSize: 0x3C }
  - { offsetInCU: 0x7EE6, offset: 0x2E5A6, size: 0x8, addend: 0x0, symName: __ZNSt3__122__make_exception_guardB8ue170006INS_29_AllocatorDestroyRangeReverseINS_9allocatorI7MonsterEENS_16reverse_iteratorIPS3_EEEEEENS_28__exception_guard_exceptionsIT_EESA_, symObjAddr: 0x36C4, symBinAddr: 0x100008904, symSize: 0x4C }
  - { offsetInCU: 0x7F1C, offset: 0x2E5DC, size: 0x8, addend: 0x0, symName: __ZNSt3__1neB8ue170006IP7MonsterS2_EEbRKNS_16reverse_iteratorIT_EERKNS3_IT0_EE, symObjAddr: 0x3754, symBinAddr: 0x100008994, symSize: 0x48 }
  - { offsetInCU: 0x7F68, offset: 0x2E628, size: 0x8, addend: 0x0, symName: __ZNSt3__112__to_addressB8ue170006INS_16reverse_iteratorIP7MonsterEEvEEu7__decayIDTclsr19__to_address_helperIT_EE6__callclsr3stdE7declvalIRKS5_EEEEES7_, symObjAddr: 0x37D0, symBinAddr: 0x100008A10, symSize: 0x24 }
  - { offsetInCU: 0x7FC8, offset: 0x2E688, size: 0x8, addend: 0x0, symName: __ZNSt3__119__allocator_destroyB8ue170006INS_9allocatorI7MonsterEENS_16reverse_iteratorINS4_IPS2_EEEES7_EEvRT_T0_T1_, symObjAddr: 0x3B88, symBinAddr: 0x100008DC8, symSize: 0x70 }
  - { offsetInCU: 0x802D, offset: 0x2E6ED, size: 0x8, addend: 0x0, symName: __ZNSt3__1neB8ue170006INS_16reverse_iteratorIP7MonsterEES4_EEbRKNS1_IT_EERKNS1_IT0_EE, symObjAddr: 0x3C34, symBinAddr: 0x100008E74, symSize: 0x60 }
  - { offsetInCU: 0x8079, offset: 0x2E739, size: 0x8, addend: 0x0, symName: __ZNSt3__112__to_addressB8ue170006INS_16reverse_iteratorINS1_IP7MonsterEEEEvEEu7__decayIDTclsr19__to_address_helperIT_EE6__callclsr3stdE7declvalIRKS6_EEEEES8_, symObjAddr: 0x3CC0, symBinAddr: 0x100008ED4, symSize: 0x24 }
  - { offsetInCU: 0x80D9, offset: 0x2E799, size: 0x8, addend: 0x0, symName: __ZNSt3__1neB8ue170006ERKNS_21__tree_const_iteratorINS_12__value_typeINS_12basic_stringIcNS_11char_traitsIcEENS_9allocatorIcEEEEP4RoomEEPNS_11__tree_nodeISA_PvEElEESH_, symObjAddr: 0x4384, symBinAddr: 0x10000940C, symSize: 0x34 }
  - { offsetInCU: 0x8116, offset: 0x2E7D6, size: 0x8, addend: 0x0, symName: __ZNSt3__1ltB8ue170006IcNS_11char_traitsIcEENS_9allocatorIcEEEEbRKNS_12basic_stringIT_T0_T1_EESB_, symObjAddr: 0x4550, symBinAddr: 0x1000095D8, symSize: 0x38 }
  - { offsetInCU: 0x816E, offset: 0x2E82E, size: 0x8, addend: 0x0, symName: __ZNSt3__1eqB8ue170006ERKNS_21__tree_const_iteratorINS_12__value_typeINS_12basic_stringIcNS_11char_traitsIcEENS_9allocatorIcEEEEP4RoomEEPNS_11__tree_nodeISA_PvEElEESH_, symObjAddr: 0x4A88, symBinAddr: 0x1000098C4, symSize: 0x30 }
  - { offsetInCU: 0x8249, offset: 0x2E909, size: 0x8, addend: 0x0, symName: __ZNSt3__116forward_as_tupleB8ue170006IJRKNS_12basic_stringIcNS_11char_traitsIcEENS_9allocatorIcEEEEEEENS_5tupleIJDpOT_EEESC_, symObjAddr: 0x4C7C, symBinAddr: 0x100009AB8, symSize: 0x2C }
  - { offsetInCU: 0x8282, offset: 0x2E942, size: 0x8, addend: 0x0, symName: __ZNSt3__116forward_as_tupleB8ue170006IJEEENS_5tupleIJDpOT_EEES4_, symObjAddr: 0x4CA8, symBinAddr: 0x100009AE4, symSize: 0x4 }
  - { offsetInCU: 0x82D1, offset: 0x2E991, size: 0x8, addend: 0x0, symName: __ZNSt3__13getB8ue170006ILm0EJRKNS_12basic_stringIcNS_11char_traitsIcEENS_9allocatorIcEEEEEEERNS_13tuple_elementIXT_ENS_5tupleIJDpT0_EEEE4typeERSD_, symObjAddr: 0x568C, symBinAddr: 0x10000A430, symSize: 0x24 }
  - { offsetInCU: 0x8314, offset: 0x2E9D4, size: 0x8, addend: 0x0, symName: __ZNSt3__127__tree_balance_after_insertB8ue170006IPNS_16__tree_node_baseIPvEEEEvT_S5_, symObjAddr: 0x573C, symBinAddr: 0x10000A4E0, symSize: 0x32C }
  - { offsetInCU: 0x8392, offset: 0x2EA52, size: 0x8, addend: 0x0, symName: __ZNSt3__120__tree_is_left_childB8ue170006IPNS_16__tree_node_baseIPvEEEEbT_, symObjAddr: 0x5AA8, symBinAddr: 0x10000A84C, symSize: 0x2C }
  - { offsetInCU: 0x83C7, offset: 0x2EA87, size: 0x8, addend: 0x0, symName: __ZNSt3__118__tree_left_rotateB8ue170006IPNS_16__tree_node_baseIPvEEEEvT_, symObjAddr: 0x5AD4, symBinAddr: 0x10000A878, symSize: 0xD8 }
  - { offsetInCU: 0x8409, offset: 0x2EAC9, size: 0x8, addend: 0x0, symName: __ZNSt3__119__tree_right_rotateB8ue170006IPNS_16__tree_node_baseIPvEEEEvT_, symObjAddr: 0x5BAC, symBinAddr: 0x10000A950, symSize: 0xCC }
  - { offsetInCU: 0x8F39, offset: 0x2F5F9, size: 0x8, addend: 0x0, symName: __ZNSt3__16vectorI7MonsterNS_9allocatorIS1_EEE26__swap_out_circular_bufferERNS_14__split_bufferIS1_RS3_EE, symObjAddr: 0x2D64, symBinAddr: 0x100008160, symSize: 0x110 }
  - { offsetInCU: 0xADA6, offset: 0x31466, size: 0x8, addend: 0x0, symName: __ZN4RoomC2ERKNSt3__112basic_stringIcNS0_11char_traitsIcEENS0_9allocatorIcEEEE, symObjAddr: 0x0, symBinAddr: 0x100007370, symSize: 0x58 }
  - { offsetInCU: 0xADDE, offset: 0x3149E, size: 0x8, addend: 0x0, symName: __ZNSt3__16vectorI7MonsterNS_9allocatorIS1_EEEC1B8ue170006Ev, symObjAddr: 0x84, symBinAddr: 0x1000073C8, symSize: 0x2C }
  - { offsetInCU: 0xAE07, offset: 0x314C7, size: 0x8, addend: 0x0, symName: __ZNSt3__13mapINS_12basic_stringIcNS_11char_traitsIcEENS_9allocatorIcEEEEP4RoomNS_4lessIS6_EENS4_INS_4pairIKS6_S8_EEEEEC1B8ue170006Ev, symObjAddr: 0xB0, symBinAddr: 0x1000073F4, symSize: 0x2C }
  - { offsetInCU: 0xAE30, offset: 0x314F0, size: 0x8, addend: 0x0, symName: __ZN4RoomC1ERKNSt3__112basic_stringIcNS0_11char_traitsIcEENS0_9allocatorIcEEEE, symObjAddr: 0xDC, symBinAddr: 0x100007420, symSize: 0x34 }
  - { offsetInCU: 0xAE68, offset: 0x31528, size: 0x8, addend: 0x0, symName: __ZN4Room7addItemERK4Item, symObjAddr: 0x110, symBinAddr: 0x100007454, symSize: 0x30 }
  - { offsetInCU: 0xAE9D, offset: 0x3155D, size: 0x8, addend: 0x0, symName: __ZN4Room10removeItemERK4Item, symObjAddr: 0x1AC, symBinAddr: 0x100007484, symSize: 0x14 }
  - { offsetInCU: 0xAED1, offset: 0x31591, size: 0x8, addend: 0x0, symName: __ZN4Room10addMonsterERK7Monster, symObjAddr: 0x1C0, symBinAddr: 0x100007498, symSize: 0x30 }
  - { offsetInCU: 0xAF06, offset: 0x315C6, size: 0x8, addend: 0x0, symName: __ZNSt3__16vectorI7MonsterNS_9allocatorIS1_EEE9push_backB8ue170006ERKS1_, symObjAddr: 0x1F0, symBinAddr: 0x1000074C8, symSize: 0x6C }
  - { offsetInCU: 0xAF3C, offset: 0x315FC, size: 0x8, addend: 0x0, symName: __ZN4Room13removeMonsterERK7Monster, symObjAddr: 0x25C, symBinAddr: 0x100007534, symSize: 0x14 }
  - { offsetInCU: 0xAF70, offset: 0x31630, size: 0x8, addend: 0x0, symName: __ZNK4Room14getDescriptionEv, symObjAddr: 0x270, symBinAddr: 0x100007548, symSize: 0x38 }
  - { offsetInCU: 0xAF97, offset: 0x31657, size: 0x8, addend: 0x0, symName: __ZNK4Room15getAdjacentRoomERKNSt3__112basic_stringIcNS0_11char_traitsIcEENS0_9allocatorIcEEEE, symObjAddr: 0x2A8, symBinAddr: 0x100007580, symSize: 0x88 }
  - { offsetInCU: 0xAFDC, offset: 0x3169C, size: 0x8, addend: 0x0, symName: __ZNKSt3__13mapINS_12basic_stringIcNS_11char_traitsIcEENS_9allocatorIcEEEEP4RoomNS_4lessIS6_EENS4_INS_4pairIKS6_S8_EEEEE4findB8ue170006ERSC_, symObjAddr: 0x330, symBinAddr: 0x100007608, symSize: 0x40 }
  - { offsetInCU: 0xB010, offset: 0x316D0, size: 0x8, addend: 0x0, symName: __ZNKSt3__13mapINS_12basic_stringIcNS_11char_traitsIcEENS_9allocatorIcEEEEP4RoomNS_4lessIS6_EENS4_INS_4pairIKS6_S8_EEEEE3endB8ue170006Ev, symObjAddr: 0x3A0, symBinAddr: 0x100007678, symSize: 0x38 }
  - { offsetInCU: 0xB035, offset: 0x316F5, size: 0x8, addend: 0x0, symName: __ZNKSt3__120__map_const_iteratorINS_21__tree_const_iteratorINS_12__value_typeINS_12basic_stringIcNS_11char_traitsIcEENS_9allocatorIcEEEEP4RoomEEPNS_11__tree_nodeISB_PvEElEEEptB8ue170006Ev, symObjAddr: 0x3D8, symBinAddr: 0x1000076B0, symSize: 0x2C }
  - { offsetInCU: 0xB05A, offset: 0x3171A, size: 0x8, addend: 0x0, symName: __ZN4Room15setAdjacentRoomERKNSt3__112basic_stringIcNS0_11char_traitsIcEENS0_9allocatorIcEEEEPS_, symObjAddr: 0x404, symBinAddr: 0x1000076DC, symSize: 0x44 }
  - { offsetInCU: 0xB09B, offset: 0x3175B, size: 0x8, addend: 0x0, symName: __ZNSt3__13mapINS_12basic_stringIcNS_11char_traitsIcEENS_9allocatorIcEEEEP4RoomNS_4lessIS6_EENS4_INS_4pairIKS6_S8_EEEEEixERSC_, symObjAddr: 0x448, symBinAddr: 0x100007720, symSize: 0x80 }
  - { offsetInCU: 0xB0DB, offset: 0x3179B, size: 0x8, addend: 0x0, symName: __ZNSt3__16vectorI7MonsterNS_9allocatorIS1_EEEC2B8ue170006Ev, symObjAddr: 0x624, symBinAddr: 0x1000077A0, symSize: 0x4C }
  - { offsetInCU: 0xB104, offset: 0x317C4, size: 0x8, addend: 0x0, symName: __ZNSt3__117__compressed_pairIP7MonsterNS_9allocatorIS1_EEEC1B8ue170006IDnNS_18__default_init_tagEEEOT_OT0_, symObjAddr: 0x670, symBinAddr: 0x1000077EC, symSize: 0x3C }
  - { offsetInCU: 0xB15B, offset: 0x3181B, size: 0x8, addend: 0x0, symName: __ZNSt3__117__compressed_pairIP7MonsterNS_9allocatorIS1_EEEC2B8ue170006IDnNS_18__default_init_tagEEEOT_OT0_, symObjAddr: 0x6AC, symBinAddr: 0x100007828, symSize: 0x40 }
  - { offsetInCU: 0xB1B3, offset: 0x31873, size: 0x8, addend: 0x0, symName: __ZNSt3__122__compressed_pair_elemIP7MonsterLi0ELb0EEC2B8ue170006IDnvEEOT_, symObjAddr: 0x6EC, symBinAddr: 0x100007868, symSize: 0x1C }
  - { offsetInCU: 0xB1F3, offset: 0x318B3, size: 0x8, addend: 0x0, symName: __ZNSt3__122__compressed_pair_elemINS_9allocatorI7MonsterEELi1ELb1EEC2B8ue170006ENS_18__default_init_tagE, symObjAddr: 0x708, symBinAddr: 0x100007884, symSize: 0x2C }
  - { offsetInCU: 0xB227, offset: 0x318E7, size: 0x8, addend: 0x0, symName: __ZNSt3__19allocatorI7MonsterEC2B8ue170006Ev, symObjAddr: 0x734, symBinAddr: 0x1000078B0, symSize: 0x2C }
  - { offsetInCU: 0xB251, offset: 0x31911, size: 0x8, addend: 0x0, symName: __ZNSt3__116__non_trivial_ifILb1ENS_9allocatorI7MonsterEEEC2B8ue170006Ev, symObjAddr: 0x760, symBinAddr: 0x1000078DC, symSize: 0x14 }
  - { offsetInCU: 0xB279, offset: 0x31939, size: 0x8, addend: 0x0, symName: __ZNSt3__13mapINS_12basic_stringIcNS_11char_traitsIcEENS_9allocatorIcEEEEP4RoomNS_4lessIS6_EENS4_INS_4pairIKS6_S8_EEEEEC2B8ue170006Ev, symObjAddr: 0x774, symBinAddr: 0x1000078F0, symSize: 0x40 }
  - { offsetInCU: 0xB2A2, offset: 0x31962, size: 0x8, addend: 0x0, symName: __ZNSt3__119__map_value_compareINS_12basic_stringIcNS_11char_traitsIcEENS_9allocatorIcEEEENS_12__value_typeIS6_P4RoomEENS_4lessIS6_EELb1EEC1B8ue170006ESC_, symObjAddr: 0x7B4, symBinAddr: 0x100007930, symSize: 0x2C }
  - { offsetInCU: 0xB2DB, offset: 0x3199B, size: 0x8, addend: 0x0, symName: __ZNSt3__16__treeINS_12__value_typeINS_12basic_stringIcNS_11char_traitsIcEENS_9allocatorIcEEEEP4RoomEENS_19__map_value_compareIS7_SA_NS_4lessIS7_EELb1EEENS5_ISA_EEEC1ERKSE_, symObjAddr: 0x7E0, symBinAddr: 0x10000795C, symSize: 0x34 }
  - { offsetInCU: 0xB315, offset: 0x319D5, size: 0x8, addend: 0x0, symName: __ZNSt3__119__map_value_compareINS_12basic_stringIcNS_11char_traitsIcEENS_9allocatorIcEEEENS_12__value_typeIS6_P4RoomEENS_4lessIS6_EELb1EEC2B8ue170006ESC_, symObjAddr: 0x814, symBinAddr: 0x100007990, symSize: 0x14 }
  - { offsetInCU: 0xB34D, offset: 0x31A0D, size: 0x8, addend: 0x0, symName: __ZNSt3__16__treeINS_12__value_typeINS_12basic_stringIcNS_11char_traitsIcEENS_9allocatorIcEEEEP4RoomEENS_19__map_value_compareIS7_SA_NS_4lessIS7_EELb1EEENS5_ISA_EEEC2ERKSE_, symObjAddr: 0x828, symBinAddr: 0x1000079A4, symSize: 0x7C }
  - { offsetInCU: 0xB386, offset: 0x31A46, size: 0x8, addend: 0x0, symName: __ZNSt3__117__compressed_pairINS_15__tree_end_nodeIPNS_16__tree_node_baseIPvEEEENS_9allocatorINS_11__tree_nodeINS_12__value_typeINS_12basic_stringIcNS_11char_traitsIcEENS7_IcEEEEP4RoomEES3_EEEEEC1B8ue170006ILb1EvEEv, symObjAddr: 0x8A4, symBinAddr: 0x100007A20, symSize: 0x2C }
  - { offsetInCU: 0xB3BF, offset: 0x31A7F, size: 0x8, addend: 0x0, symName: __ZNSt3__117__compressed_pairImNS_19__map_value_compareINS_12basic_stringIcNS_11char_traitsIcEENS_9allocatorIcEEEENS_12__value_typeIS7_P4RoomEENS_4lessIS7_EELb1EEEEC1B8ue170006IiRKSE_EEOT_OT0_, symObjAddr: 0x8D0, symBinAddr: 0x100007A4C, symSize: 0x3C }
  - { offsetInCU: 0xB417, offset: 0x31AD7, size: 0x8, addend: 0x0, symName: __ZNSt3__16__treeINS_12__value_typeINS_12basic_stringIcNS_11char_traitsIcEENS_9allocatorIcEEEEP4RoomEENS_19__map_value_compareIS7_SA_NS_4lessIS7_EELb1EEENS5_ISA_EEE10__end_nodeB8ue170006Ev, symObjAddr: 0x90C, symBinAddr: 0x100007A88, symSize: 0x2C }
  - { offsetInCU: 0xB43C, offset: 0x31AFC, size: 0x8, addend: 0x0, symName: __ZNSt3__16__treeINS_12__value_typeINS_12basic_stringIcNS_11char_traitsIcEENS_9allocatorIcEEEEP4RoomEENS_19__map_value_compareIS7_SA_NS_4lessIS7_EELb1EEENS5_ISA_EEE12__begin_nodeB8ue170006Ev, symObjAddr: 0x938, symBinAddr: 0x100007AB4, symSize: 0x14 }
  - { offsetInCU: 0xB460, offset: 0x31B20, size: 0x8, addend: 0x0, symName: __ZNSt3__117__compressed_pairINS_15__tree_end_nodeIPNS_16__tree_node_baseIPvEEEENS_9allocatorINS_11__tree_nodeINS_12__value_typeINS_12basic_stringIcNS_11char_traitsIcEENS7_IcEEEEP4RoomEES3_EEEEEC2B8ue170006ILb1EvEEv, symObjAddr: 0x94C, symBinAddr: 0x100007AC8, symSize: 0x34 }
  - { offsetInCU: 0xB494, offset: 0x31B54, size: 0x8, addend: 0x0, symName: __ZNSt3__122__compressed_pair_elemINS_15__tree_end_nodeIPNS_16__tree_node_baseIPvEEEELi0ELb0EEC2B8ue170006ENS_16__value_init_tagE, symObjAddr: 0x980, symBinAddr: 0x100007AFC, symSize: 0x2C }
  - { offsetInCU: 0xB4C8, offset: 0x31B88, size: 0x8, addend: 0x0, symName: __ZNSt3__122__compressed_pair_elemINS_9allocatorINS_11__tree_nodeINS_12__value_typeINS_12basic_stringIcNS_11char_traitsIcEENS1_IcEEEEP4RoomEEPvEEEELi1ELb1EEC2B8ue170006ENS_16__value_init_tagE, symObjAddr: 0x9AC, symBinAddr: 0x100007B28, symSize: 0x2C }
  - { offsetInCU: 0xB4FC, offset: 0x31BBC, size: 0x8, addend: 0x0, symName: __ZNSt3__115__tree_end_nodeIPNS_16__tree_node_baseIPvEEEC1B8ue170006Ev, symObjAddr: 0x9D8, symBinAddr: 0x100007B54, symSize: 0x2C }
  - { offsetInCU: 0xB526, offset: 0x31BE6, size: 0x8, addend: 0x0, symName: __ZNSt3__115__tree_end_nodeIPNS_16__tree_node_baseIPvEEEC2B8ue170006Ev, symObjAddr: 0xA04, symBinAddr: 0x100007B80, symSize: 0x18 }
  - { offsetInCU: 0xB54E, offset: 0x31C0E, size: 0x8, addend: 0x0, symName: __ZNSt3__19allocatorINS_11__tree_nodeINS_12__value_typeINS_12basic_stringIcNS_11char_traitsIcEENS0_IcEEEEP4RoomEEPvEEEC2B8ue170006Ev, symObjAddr: 0xA1C, symBinAddr: 0x100007B98, symSize: 0x2C }
  - { offsetInCU: 0xB578, offset: 0x31C38, size: 0x8, addend: 0x0, symName: __ZNSt3__116__non_trivial_ifILb1ENS_9allocatorINS_11__tree_nodeINS_12__value_typeINS_12basic_stringIcNS_11char_traitsIcEENS1_IcEEEEP4RoomEEPvEEEEEC2B8ue170006Ev, symObjAddr: 0xA48, symBinAddr: 0x100007BC4, symSize: 0x14 }
  - { offsetInCU: 0xB5A0, offset: 0x31C60, size: 0x8, addend: 0x0, symName: __ZNSt3__117__compressed_pairImNS_19__map_value_compareINS_12basic_stringIcNS_11char_traitsIcEENS_9allocatorIcEEEENS_12__value_typeIS7_P4RoomEENS_4lessIS7_EELb1EEEEC2B8ue170006IiRKSE_EEOT_OT0_, symObjAddr: 0xA5C, symBinAddr: 0x100007BD8, symSize: 0x44 }
  - { offsetInCU: 0xB5F8, offset: 0x31CB8, size: 0x8, addend: 0x0, symName: __ZNSt3__122__compressed_pair_elemImLi0ELb0EEC2B8ue170006IivEEOT_, symObjAddr: 0xAA0, symBinAddr: 0x100007C1C, symSize: 0x24 }
  - { offsetInCU: 0xB639, offset: 0x31CF9, size: 0x8, addend: 0x0, symName: __ZNSt3__122__compressed_pair_elemINS_19__map_value_compareINS_12basic_stringIcNS_11char_traitsIcEENS_9allocatorIcEEEENS_12__value_typeIS7_P4RoomEENS_4lessIS7_EELb1EEELi1ELb1EEC2B8ue170006IRKSE_vEEOT_, symObjAddr: 0xAC4, symBinAddr: 0x100007C40, symSize: 0x18 }
  - { offsetInCU: 0xB67A, offset: 0x31D3A, size: 0x8, addend: 0x0, symName: __ZNSt3__117__compressed_pairINS_15__tree_end_nodeIPNS_16__tree_node_baseIPvEEEENS_9allocatorINS_11__tree_nodeINS_12__value_typeINS_12basic_stringIcNS_11char_traitsIcEENS7_IcEEEEP4RoomEES3_EEEEE5firstB8ue170006Ev, symObjAddr: 0xAF0, symBinAddr: 0x100007C58, symSize: 0x24 }
  - { offsetInCU: 0xB69F, offset: 0x31D5F, size: 0x8, addend: 0x0, symName: __ZNSt3__122__compressed_pair_elemINS_15__tree_end_nodeIPNS_16__tree_node_baseIPvEEEELi0ELb0EE5__getB8ue170006Ev, symObjAddr: 0xB14, symBinAddr: 0x100007C7C, symSize: 0x14 }
  - { offsetInCU: 0xB6EC, offset: 0x31DAC, size: 0x8, addend: 0x0, symName: __ZNSt3__16vectorI7MonsterNS_9allocatorIS1_EEE9__end_capB8ue170006Ev, symObjAddr: 0x27F8, symBinAddr: 0x100007C90, symSize: 0x28 }
  - { offsetInCU: 0xB711, offset: 0x31DD1, size: 0x8, addend: 0x0, symName: __ZNSt3__16vectorI7MonsterNS_9allocatorIS1_EEE22__construct_one_at_endB8ue170006IJRKS1_EEEvDpOT_, symObjAddr: 0x2820, symBinAddr: 0x100007CB8, symSize: 0x90 }
  - { offsetInCU: 0xB75E, offset: 0x31E1E, size: 0x8, addend: 0x0, symName: __ZNSt3__16vectorI7MonsterNS_9allocatorIS1_EEE21__push_back_slow_pathIRKS1_EEvOT_, symObjAddr: 0x28B0, symBinAddr: 0x100007D48, symSize: 0xD8 }
  - { offsetInCU: 0xB7BC, offset: 0x31E7C, size: 0x8, addend: 0x0, symName: __ZNSt3__117__compressed_pairIP7MonsterNS_9allocatorIS1_EEE5firstB8ue170006Ev, symObjAddr: 0x2988, symBinAddr: 0x100007E20, symSize: 0x24 }
  - { offsetInCU: 0xB7E1, offset: 0x31EA1, size: 0x8, addend: 0x0, symName: __ZNSt3__122__compressed_pair_elemIP7MonsterLi0ELb0EE5__getB8ue170006Ev, symObjAddr: 0x29AC, symBinAddr: 0x100007E44, symSize: 0x14 }
  - { offsetInCU: 0xB81E, offset: 0x31EDE, size: 0x8, addend: 0x0, symName: __ZNSt3__16vectorI7MonsterNS_9allocatorIS1_EEE21_ConstructTransactionC1B8ue170006ERS4_m, symObjAddr: 0x29C0, symBinAddr: 0x100007E58, symSize: 0x3C }
  - { offsetInCU: 0xB866, offset: 0x31F26, size: 0x8, addend: 0x0, symName: __ZNSt3__116allocator_traitsINS_9allocatorI7MonsterEEE9constructB8ue170006IS2_JRKS2_EvEEvRS3_PT_DpOT0_, symObjAddr: 0x29FC, symBinAddr: 0x100007E94, symSize: 0x34 }
  - { offsetInCU: 0xB8BC, offset: 0x31F7C, size: 0x8, addend: 0x0, symName: __ZNSt3__16vectorI7MonsterNS_9allocatorIS1_EEE21_ConstructTransactionD1B8ue170006Ev, symObjAddr: 0x2A6C, symBinAddr: 0x100007EC8, symSize: 0x2C }
  - { offsetInCU: 0xB8E6, offset: 0x31FA6, size: 0x8, addend: 0x0, symName: __ZNSt3__16vectorI7MonsterNS_9allocatorIS1_EEE21_ConstructTransactionC2B8ue170006ERS4_m, symObjAddr: 0x2A98, symBinAddr: 0x100007EF4, symSize: 0x4C }
  - { offsetInCU: 0xB92D, offset: 0x31FED, size: 0x8, addend: 0x0, symName: __ZNSt3__19allocatorI7MonsterE9constructB8ue170006IS1_JRKS1_EEEvPT_DpOT0_, symObjAddr: 0x2AE4, symBinAddr: 0x100007F40, symSize: 0x30 }
  - { offsetInCU: 0xB981, offset: 0x32041, size: 0x8, addend: 0x0, symName: __ZN7MonsterC1ERKS_, symObjAddr: 0x2B14, symBinAddr: 0x100007F70, symSize: 0x34 }
  - { offsetInCU: 0xB9B4, offset: 0x32074, size: 0x8, addend: 0x0, symName: __ZN7MonsterC2ERKS_, symObjAddr: 0x2B48, symBinAddr: 0x100007FA4, symSize: 0x4C }
  - { offsetInCU: 0xB9EC, offset: 0x320AC, size: 0x8, addend: 0x0, symName: __ZN9CharacterC2ERKS_, symObjAddr: 0x2B94, symBinAddr: 0x100007FF0, symSize: 0x58 }
  - { offsetInCU: 0xBA20, offset: 0x320E0, size: 0x8, addend: 0x0, symName: __ZNSt3__16vectorI7MonsterNS_9allocatorIS1_EEE21_ConstructTransactionD2B8ue170006Ev, symObjAddr: 0x2C24, symBinAddr: 0x100008048, symSize: 0x20 }
  - { offsetInCU: 0xBA48, offset: 0x32108, size: 0x8, addend: 0x0, symName: __ZNKSt3__16vectorI7MonsterNS_9allocatorIS1_EEE11__recommendB8ue170006Em, symObjAddr: 0x2C44, symBinAddr: 0x100008068, symSize: 0xB4 }
  - { offsetInCU: 0xBA9D, offset: 0x3215D, size: 0x8, addend: 0x0, symName: __ZNSt3__114__split_bufferI7MonsterRNS_9allocatorIS1_EEEC1EmmS4_, symObjAddr: 0x2D20, symBinAddr: 0x10000811C, symSize: 0x44 }
  - { offsetInCU: 0xBAF2, offset: 0x321B2, size: 0x8, addend: 0x0, symName: __ZNSt3__114__split_bufferI7MonsterRNS_9allocatorIS1_EEED1Ev, symObjAddr: 0x2E74, symBinAddr: 0x100008270, symSize: 0x2C }
  - { offsetInCU: 0xBB1C, offset: 0x321DC, size: 0x8, addend: 0x0, symName: __ZNKSt3__16vectorI7MonsterNS_9allocatorIS1_EEE8max_sizeEv, symObjAddr: 0x2EA0, symBinAddr: 0x10000829C, symSize: 0x60 }
  - { offsetInCU: 0xBB44, offset: 0x32204, size: 0x8, addend: 0x0, symName: __ZNKSt3__16vectorI7MonsterNS_9allocatorIS1_EEE20__throw_length_errorB8ue170006Ev, symObjAddr: 0x2F00, symBinAddr: 0x1000082FC, symSize: 0x1C }
  - { offsetInCU: 0xBB73, offset: 0x32233, size: 0x8, addend: 0x0, symName: __ZNSt3__116allocator_traitsINS_9allocatorI7MonsterEEE8max_sizeB8ue170006IS3_vEEmRKS3_, symObjAddr: 0x2F5C, symBinAddr: 0x100008318, symSize: 0x24 }
  - { offsetInCU: 0xBBA1, offset: 0x32261, size: 0x8, addend: 0x0, symName: __ZNKSt3__16vectorI7MonsterNS_9allocatorIS1_EEE7__allocB8ue170006Ev, symObjAddr: 0x2F80, symBinAddr: 0x10000833C, symSize: 0x28 }
  - { offsetInCU: 0xBBC6, offset: 0x32286, size: 0x8, addend: 0x0, symName: __ZNKSt3__19allocatorI7MonsterE8max_sizeB8ue170006Ev, symObjAddr: 0x2FA8, symBinAddr: 0x100008364, symSize: 0x18 }
  - { offsetInCU: 0xBBEB, offset: 0x322AB, size: 0x8, addend: 0x0, symName: __ZNKSt3__117__compressed_pairIP7MonsterNS_9allocatorIS1_EEE6secondB8ue170006Ev, symObjAddr: 0x2FC0, symBinAddr: 0x10000837C, symSize: 0x24 }
  - { offsetInCU: 0xBC10, offset: 0x322D0, size: 0x8, addend: 0x0, symName: __ZNKSt3__122__compressed_pair_elemINS_9allocatorI7MonsterEELi1ELb1EE5__getB8ue170006Ev, symObjAddr: 0x2FE4, symBinAddr: 0x1000083A0, symSize: 0x14 }
  - { offsetInCU: 0xBC35, offset: 0x322F5, size: 0x8, addend: 0x0, symName: __ZNSt3__114__split_bufferI7MonsterRNS_9allocatorIS1_EEEC2EmmS4_, symObjAddr: 0x3058, symBinAddr: 0x1000083B4, symSize: 0xE0 }
  - { offsetInCU: 0xBCA7, offset: 0x32367, size: 0x8, addend: 0x0, symName: __ZNSt3__117__compressed_pairIP7MonsterRNS_9allocatorIS1_EEEC1B8ue170006IDnS5_EEOT_OT0_, symObjAddr: 0x3138, symBinAddr: 0x100008494, symSize: 0x3C }
  - { offsetInCU: 0xBCFF, offset: 0x323BF, size: 0x8, addend: 0x0, symName: __ZNSt3__114__split_bufferI7MonsterRNS_9allocatorIS1_EEE7__allocB8ue170006Ev, symObjAddr: 0x31B4, symBinAddr: 0x100008510, symSize: 0x28 }
  - { offsetInCU: 0xBD24, offset: 0x323E4, size: 0x8, addend: 0x0, symName: __ZNSt3__114__split_bufferI7MonsterRNS_9allocatorIS1_EEE9__end_capB8ue170006Ev, symObjAddr: 0x31DC, symBinAddr: 0x100008538, symSize: 0x28 }
  - { offsetInCU: 0xBD48, offset: 0x32408, size: 0x8, addend: 0x0, symName: __ZNSt3__117__compressed_pairIP7MonsterRNS_9allocatorIS1_EEEC2B8ue170006IDnS5_EEOT_OT0_, symObjAddr: 0x3204, symBinAddr: 0x100008560, symSize: 0x48 }
  - { offsetInCU: 0xBDA0, offset: 0x32460, size: 0x8, addend: 0x0, symName: __ZNSt3__122__compressed_pair_elemIRNS_9allocatorI7MonsterEELi1ELb0EEC2B8ue170006IS4_vEEOT_, symObjAddr: 0x324C, symBinAddr: 0x1000085A8, symSize: 0x20 }
  - { offsetInCU: 0xBDE1, offset: 0x324A1, size: 0x8, addend: 0x0, symName: __ZNSt3__19allocatorI7MonsterE8allocateB8ue170006Em, symObjAddr: 0x326C, symBinAddr: 0x1000085C8, symSize: 0x5C }
  - { offsetInCU: 0xBE14, offset: 0x324D4, size: 0x8, addend: 0x0, symName: __ZNSt3__117__compressed_pairIP7MonsterRNS_9allocatorIS1_EEE6secondB8ue170006Ev, symObjAddr: 0x32C8, symBinAddr: 0x100008624, symSize: 0x28 }
  - { offsetInCU: 0xBE39, offset: 0x324F9, size: 0x8, addend: 0x0, symName: __ZNSt3__122__compressed_pair_elemIRNS_9allocatorI7MonsterEELi1ELb0EE5__getB8ue170006Ev, symObjAddr: 0x32F0, symBinAddr: 0x10000864C, symSize: 0x18 }
  - { offsetInCU: 0xBE5E, offset: 0x3251E, size: 0x8, addend: 0x0, symName: __ZNSt3__117__compressed_pairIP7MonsterRNS_9allocatorIS1_EEE5firstB8ue170006Ev, symObjAddr: 0x3308, symBinAddr: 0x100008664, symSize: 0x24 }
  - { offsetInCU: 0xBE82, offset: 0x32542, size: 0x8, addend: 0x0, symName: __ZNSt3__116reverse_iteratorIP7MonsterEC1B8ue170006ES2_, symObjAddr: 0x352C, symBinAddr: 0x1000087B4, symSize: 0x34 }
  - { offsetInCU: 0xBEBA, offset: 0x3257A, size: 0x8, addend: 0x0, symName: __ZNKSt3__116reverse_iteratorIP7MonsterE4baseB8ue170006Ev, symObjAddr: 0x3560, symBinAddr: 0x1000087E8, symSize: 0x18 }
  - { offsetInCU: 0xBEDF, offset: 0x3259F, size: 0x8, addend: 0x0, symName: __ZNKSt3__16vectorI7MonsterNS_9allocatorIS1_EEE14__annotate_newB8ue170006Em, symObjAddr: 0x35B4, symBinAddr: 0x10000883C, symSize: 0xC8 }
  - { offsetInCU: 0xBF12, offset: 0x325D2, size: 0x8, addend: 0x0, symName: __ZNSt3__129_AllocatorDestroyRangeReverseINS_9allocatorI7MonsterEENS_16reverse_iteratorIPS2_EEEC1B8ue170006ERS3_RS6_S9_, symObjAddr: 0x3710, symBinAddr: 0x100008950, symSize: 0x44 }
  - { offsetInCU: 0xBF6E, offset: 0x3262E, size: 0x8, addend: 0x0, symName: __ZNSt3__116allocator_traitsINS_9allocatorI7MonsterEEE9constructB8ue170006IS2_JS2_EvEEvRS3_PT_DpOT0_, symObjAddr: 0x379C, symBinAddr: 0x1000089DC, symSize: 0x34 }
  - { offsetInCU: 0xBFC5, offset: 0x32685, size: 0x8, addend: 0x0, symName: __ZNKSt3__116reverse_iteratorIP7MonsterEdeB8ue170006Ev, symObjAddr: 0x37F4, symBinAddr: 0x100008A34, symSize: 0x28 }
  - { offsetInCU: 0xBFF9, offset: 0x326B9, size: 0x8, addend: 0x0, symName: __ZNSt3__116reverse_iteratorIP7MonsterEppB8ue170006Ev, symObjAddr: 0x381C, symBinAddr: 0x100008A5C, symSize: 0x20 }
  - { offsetInCU: 0xC01E, offset: 0x326DE, size: 0x8, addend: 0x0, symName: __ZNSt3__128__exception_guard_exceptionsINS_29_AllocatorDestroyRangeReverseINS_9allocatorI7MonsterEENS_16reverse_iteratorIPS3_EEEEE10__completeB8ue170006Ev, symObjAddr: 0x383C, symBinAddr: 0x100008A7C, symSize: 0x1C }
  - { offsetInCU: 0xC042, offset: 0x32702, size: 0x8, addend: 0x0, symName: __ZNSt3__128__exception_guard_exceptionsINS_29_AllocatorDestroyRangeReverseINS_9allocatorI7MonsterEENS_16reverse_iteratorIPS3_EEEEED1B8ue170006Ev, symObjAddr: 0x3858, symBinAddr: 0x100008A98, symSize: 0x2C }
  - { offsetInCU: 0xC06B, offset: 0x3272B, size: 0x8, addend: 0x0, symName: __ZNSt3__128__exception_guard_exceptionsINS_29_AllocatorDestroyRangeReverseINS_9allocatorI7MonsterEENS_16reverse_iteratorIPS3_EEEEEC1B8ue170006ES8_, symObjAddr: 0x3884, symBinAddr: 0x100008AC4, symSize: 0x34 }
  - { offsetInCU: 0xC0A4, offset: 0x32764, size: 0x8, addend: 0x0, symName: __ZNSt3__128__exception_guard_exceptionsINS_29_AllocatorDestroyRangeReverseINS_9allocatorI7MonsterEENS_16reverse_iteratorIPS3_EEEEEC2B8ue170006ES8_, symObjAddr: 0x38B8, symBinAddr: 0x100008AF8, symSize: 0x30 }
  - { offsetInCU: 0xC0DC, offset: 0x3279C, size: 0x8, addend: 0x0, symName: __ZNSt3__129_AllocatorDestroyRangeReverseINS_9allocatorI7MonsterEENS_16reverse_iteratorIPS2_EEEC2B8ue170006ERS3_RS6_S9_, symObjAddr: 0x38E8, symBinAddr: 0x100008B28, symSize: 0x38 }
  - { offsetInCU: 0xC132, offset: 0x327F2, size: 0x8, addend: 0x0, symName: __ZNSt3__19allocatorI7MonsterE9constructB8ue170006IS1_JS1_EEEvPT_DpOT0_, symObjAddr: 0x3920, symBinAddr: 0x100008B60, symSize: 0x30 }
  - { offsetInCU: 0xC186, offset: 0x32846, size: 0x8, addend: 0x0, symName: __ZN7MonsterC1EOS_, symObjAddr: 0x3950, symBinAddr: 0x100008B90, symSize: 0x34 }
  - { offsetInCU: 0xC1B9, offset: 0x32879, size: 0x8, addend: 0x0, symName: __ZN7MonsterC2EOS_, symObjAddr: 0x3984, symBinAddr: 0x100008BC4, symSize: 0x4C }
  - { offsetInCU: 0xC1F1, offset: 0x328B1, size: 0x8, addend: 0x0, symName: __ZN9CharacterC2EOS_, symObjAddr: 0x39D0, symBinAddr: 0x100008C10, symSize: 0x58 }
  - { offsetInCU: 0xC22A, offset: 0x328EA, size: 0x8, addend: 0x0, symName: __ZNSt3__119__to_address_helperINS_16reverse_iteratorIP7MonsterEEvE6__callB8ue170006ERKS4_, symObjAddr: 0x3A28, symBinAddr: 0x100008C68, symSize: 0x38 }
  - { offsetInCU: 0xC24D, offset: 0x3290D, size: 0x8, addend: 0x0, symName: __ZNKSt3__116reverse_iteratorIP7MonsterEptB8ue170006Ev, symObjAddr: 0x3A60, symBinAddr: 0x100008CA0, symSize: 0x24 }
  - { offsetInCU: 0xC271, offset: 0x32931, size: 0x8, addend: 0x0, symName: __ZNSt3__128__exception_guard_exceptionsINS_29_AllocatorDestroyRangeReverseINS_9allocatorI7MonsterEENS_16reverse_iteratorIPS3_EEEEED2B8ue170006Ev, symObjAddr: 0x3A84, symBinAddr: 0x100008CC4, symSize: 0x50 }
  - { offsetInCU: 0xC29B, offset: 0x3295B, size: 0x8, addend: 0x0, symName: __ZNKSt3__129_AllocatorDestroyRangeReverseINS_9allocatorI7MonsterEENS_16reverse_iteratorIPS2_EEEclB8ue170006Ev, symObjAddr: 0x3AD4, symBinAddr: 0x100008D14, symSize: 0xB4 }
  - { offsetInCU: 0xC2C0, offset: 0x32980, size: 0x8, addend: 0x0, symName: __ZNSt3__116reverse_iteratorINS0_IP7MonsterEEEC1B8ue170006ES3_, symObjAddr: 0x3BF8, symBinAddr: 0x100008E38, symSize: 0x3C }
  - { offsetInCU: 0xC2F8, offset: 0x329B8, size: 0x8, addend: 0x0, symName: __ZNSt3__116reverse_iteratorINS0_IP7MonsterEEEppB8ue170006Ev, symObjAddr: 0x3CE4, symBinAddr: 0x100008EF8, symSize: 0x30 }
  - { offsetInCU: 0xC31D, offset: 0x329DD, size: 0x8, addend: 0x0, symName: __ZNKSt3__116reverse_iteratorINS0_IP7MonsterEEE4baseB8ue170006Ev, symObjAddr: 0x3D14, symBinAddr: 0x100008F28, symSize: 0x24 }
  - { offsetInCU: 0xC347, offset: 0x32A07, size: 0x8, addend: 0x0, symName: __ZNSt3__119__to_address_helperINS_16reverse_iteratorINS1_IP7MonsterEEEEvE6__callB8ue170006ERKS5_, symObjAddr: 0x3DF8, symBinAddr: 0x100008F4C, symSize: 0x38 }
  - { offsetInCU: 0xC36A, offset: 0x32A2A, size: 0x8, addend: 0x0, symName: __ZNKSt3__116reverse_iteratorINS0_IP7MonsterEEEptB8ue170006Ev, symObjAddr: 0x3E30, symBinAddr: 0x100008F84, symSize: 0x24 }
  - { offsetInCU: 0xC38F, offset: 0x32A4F, size: 0x8, addend: 0x0, symName: __ZNKSt3__116reverse_iteratorINS0_IP7MonsterEEEdeB8ue170006Ev, symObjAddr: 0x3E54, symBinAddr: 0x100008FA8, symSize: 0x34 }
  - { offsetInCU: 0xC3C3, offset: 0x32A83, size: 0x8, addend: 0x0, symName: __ZNSt3__116reverse_iteratorIP7MonsterEmmB8ue170006Ev, symObjAddr: 0x3E88, symBinAddr: 0x100008FDC, symSize: 0x20 }
  - { offsetInCU: 0xC3E8, offset: 0x32AA8, size: 0x8, addend: 0x0, symName: __ZNSt3__116reverse_iteratorINS0_IP7MonsterEEEC2B8ue170006ES3_, symObjAddr: 0x3EA8, symBinAddr: 0x100008FFC, symSize: 0x2C }
  - { offsetInCU: 0xC41F, offset: 0x32ADF, size: 0x8, addend: 0x0, symName: __ZNSt3__116reverse_iteratorIP7MonsterEC2B8ue170006ES2_, symObjAddr: 0x3ED4, symBinAddr: 0x100009028, symSize: 0x28 }
  - { offsetInCU: 0xC456, offset: 0x32B16, size: 0x8, addend: 0x0, symName: __ZNSt3__114__split_bufferI7MonsterRNS_9allocatorIS1_EEED2Ev, symObjAddr: 0x3EFC, symBinAddr: 0x100009050, symSize: 0x8C }
  - { offsetInCU: 0xC481, offset: 0x32B41, size: 0x8, addend: 0x0, symName: __ZNSt3__114__split_bufferI7MonsterRNS_9allocatorIS1_EEE5clearB8ue170006Ev, symObjAddr: 0x3F88, symBinAddr: 0x1000090DC, symSize: 0x28 }
  - { offsetInCU: 0xC4A6, offset: 0x32B66, size: 0x8, addend: 0x0, symName: __ZNKSt3__114__split_bufferI7MonsterRNS_9allocatorIS1_EEE8capacityB8ue170006Ev, symObjAddr: 0x3FE4, symBinAddr: 0x100009104, symSize: 0x40 }
  - { offsetInCU: 0xC4CB, offset: 0x32B8B, size: 0x8, addend: 0x0, symName: __ZNSt3__114__split_bufferI7MonsterRNS_9allocatorIS1_EEE17__destruct_at_endB8ue170006EPS1_, symObjAddr: 0x4024, symBinAddr: 0x100009144, symSize: 0x2C }
  - { offsetInCU: 0xC4FD, offset: 0x32BBD, size: 0x8, addend: 0x0, symName: __ZNSt3__114__split_bufferI7MonsterRNS_9allocatorIS1_EEE17__destruct_at_endB8ue170006EPS1_NS_17integral_constantIbLb0EEE, symObjAddr: 0x4050, symBinAddr: 0x100009170, symSize: 0x80 }
  - { offsetInCU: 0xC53E, offset: 0x32BFE, size: 0x8, addend: 0x0, symName: __ZNKSt3__114__split_bufferI7MonsterRNS_9allocatorIS1_EEE9__end_capB8ue170006Ev, symObjAddr: 0x4114, symBinAddr: 0x1000091F0, symSize: 0x28 }
  - { offsetInCU: 0xC563, offset: 0x32C23, size: 0x8, addend: 0x0, symName: __ZNKSt3__117__compressed_pairIP7MonsterRNS_9allocatorIS1_EEE5firstB8ue170006Ev, symObjAddr: 0x413C, symBinAddr: 0x100009218, symSize: 0x24 }
  - { offsetInCU: 0xC587, offset: 0x32C47, size: 0x8, addend: 0x0, symName: __ZNKSt3__16__treeINS_12__value_typeINS_12basic_stringIcNS_11char_traitsIcEENS_9allocatorIcEEEEP4RoomEENS_19__map_value_compareIS7_SA_NS_4lessIS7_EELb1EEENS5_ISA_EEE4findIS7_EENS_21__tree_const_iteratorISA_PNS_11__tree_nodeISA_PvEElEERKT_, symObjAddr: 0x4160, symBinAddr: 0x10000923C, symSize: 0xF8 }
  - { offsetInCU: 0xC5D5, offset: 0x32C95, size: 0x8, addend: 0x0, symName: __ZNSt3__120__map_const_iteratorINS_21__tree_const_iteratorINS_12__value_typeINS_12basic_stringIcNS_11char_traitsIcEENS_9allocatorIcEEEEP4RoomEEPNS_11__tree_nodeISB_PvEElEEEC1B8ue170006ESG_, symObjAddr: 0x4258, symBinAddr: 0x100009334, symSize: 0x34 }
  - { offsetInCU: 0xC60D, offset: 0x32CCD, size: 0x8, addend: 0x0, symName: __ZNKSt3__16__treeINS_12__value_typeINS_12basic_stringIcNS_11char_traitsIcEENS_9allocatorIcEEEEP4RoomEENS_19__map_value_compareIS7_SA_NS_4lessIS7_EELb1EEENS5_ISA_EEE13__lower_boundIS7_EENS_21__tree_const_iteratorISA_PNS_11__tree_nodeISA_PvEElEERKT_SM_PNS_15__tree_end_nodeIPNS_16__tree_node_baseISK_EEEE, symObjAddr: 0x428C, symBinAddr: 0x100009368, symSize: 0xA4 }
  - { offsetInCU: 0xC66B, offset: 0x32D2B, size: 0x8, addend: 0x0, symName: __ZNKSt3__16__treeINS_12__value_typeINS_12basic_stringIcNS_11char_traitsIcEENS_9allocatorIcEEEEP4RoomEENS_19__map_value_compareIS7_SA_NS_4lessIS7_EELb1EEENS5_ISA_EEE3endB8ue170006Ev, symObjAddr: 0x43B8, symBinAddr: 0x100009440, symSize: 0x34 }
  - { offsetInCU: 0xC690, offset: 0x32D50, size: 0x8, addend: 0x0, symName: __ZNKSt3__16__treeINS_12__value_typeINS_12basic_stringIcNS_11char_traitsIcEENS_9allocatorIcEEEEP4RoomEENS_19__map_value_compareIS7_SA_NS_4lessIS7_EELb1EEENS5_ISA_EEE10value_compB8ue170006Ev, symObjAddr: 0x43EC, symBinAddr: 0x100009474, symSize: 0x28 }
  - { offsetInCU: 0xC6B5, offset: 0x32D75, size: 0x8, addend: 0x0, symName: __ZNKSt3__119__map_value_compareINS_12basic_stringIcNS_11char_traitsIcEENS_9allocatorIcEEEENS_12__value_typeIS6_P4RoomEENS_4lessIS6_EELb1EEclB8ue170006ERKS6_RKSA_, symObjAddr: 0x4414, symBinAddr: 0x10000949C, symSize: 0x50 }
  - { offsetInCU: 0xC6F8, offset: 0x32DB8, size: 0x8, addend: 0x0, symName: __ZNKSt3__121__tree_const_iteratorINS_12__value_typeINS_12basic_stringIcNS_11char_traitsIcEENS_9allocatorIcEEEEP4RoomEEPNS_11__tree_nodeISA_PvEElEdeB8ue170006Ev, symObjAddr: 0x4464, symBinAddr: 0x1000094EC, symSize: 0x28 }
  - { offsetInCU: 0xC71D, offset: 0x32DDD, size: 0x8, addend: 0x0, symName: __ZNKSt3__119__map_value_compareINS_12basic_stringIcNS_11char_traitsIcEENS_9allocatorIcEEEENS_12__value_typeIS6_P4RoomEENS_4lessIS6_EELb1EEclB8ue170006ERKSA_RKS6_, symObjAddr: 0x448C, symBinAddr: 0x100009514, symSize: 0x48 }
  - { offsetInCU: 0xC75F, offset: 0x32E1F, size: 0x8, addend: 0x0, symName: __ZNSt3__121__tree_const_iteratorINS_12__value_typeINS_12basic_stringIcNS_11char_traitsIcEENS_9allocatorIcEEEEP4RoomEEPNS_11__tree_nodeISA_PvEElEC1B8ue170006EPNS_15__tree_end_nodeIPNS_16__tree_node_baseISC_EEEE, symObjAddr: 0x44D4, symBinAddr: 0x10000955C, symSize: 0x34 }
  - { offsetInCU: 0xC798, offset: 0x32E58, size: 0x8, addend: 0x0, symName: __ZNKSt3__14lessINS_12basic_stringIcNS_11char_traitsIcEENS_9allocatorIcEEEEEclB8ue170006ERKS6_S9_, symObjAddr: 0x4508, symBinAddr: 0x100009590, symSize: 0x34 }
  - { offsetInCU: 0xC7DB, offset: 0x32E9B, size: 0x8, addend: 0x0, symName: __ZNKSt3__112__value_typeINS_12basic_stringIcNS_11char_traitsIcEENS_9allocatorIcEEEEP4RoomE11__get_valueB8ue170006Ev, symObjAddr: 0x453C, symBinAddr: 0x1000095C4, symSize: 0x14 }
  - { offsetInCU: 0xC7FF, offset: 0x32EBF, size: 0x8, addend: 0x0, symName: __ZNKSt3__112basic_stringIcNS_11char_traitsIcEENS_9allocatorIcEEE7compareB8ue170006ERKS5_, symObjAddr: 0x4588, symBinAddr: 0x100009610, symSize: 0x4C }
  - { offsetInCU: 0xC835, offset: 0x32EF5, size: 0x8, addend: 0x0, symName: __ZNKSt3__112basic_stringIcNS_11char_traitsIcEENS_9allocatorIcEEE7compareINS_17basic_string_viewIcS2_EELi0EEEiRKT_, symObjAddr: 0x45D4, symBinAddr: 0x10000965C, symSize: 0x12C }
  - { offsetInCU: 0xC8B8, offset: 0x32F78, size: 0x8, addend: 0x0, symName: __ZNKSt3__112basic_stringIcNS_11char_traitsIcEENS_9allocatorIcEEEcvNS_17basic_string_viewIcS2_EEB8ue170006Ev, symObjAddr: 0x4700, symBinAddr: 0x100009788, symSize: 0x50 }
  - { offsetInCU: 0xC8DD, offset: 0x32F9D, size: 0x8, addend: 0x0, symName: __ZNKSt3__117basic_string_viewIcNS_11char_traitsIcEEE4sizeB8ue170006Ev, symObjAddr: 0x47A4, symBinAddr: 0x1000097D8, symSize: 0x18 }
  - { offsetInCU: 0xC902, offset: 0x32FC2, size: 0x8, addend: 0x0, symName: __ZNSt3__111char_traitsIcE7compareB8ue170006EPKcS3_m, symObjAddr: 0x47BC, symBinAddr: 0x1000097F0, symSize: 0x34 }
  - { offsetInCU: 0xC941, offset: 0x33001, size: 0x8, addend: 0x0, symName: __ZNKSt3__117basic_string_viewIcNS_11char_traitsIcEEE4dataB8ue170006Ev, symObjAddr: 0x4818, symBinAddr: 0x100009824, symSize: 0x18 }
  - { offsetInCU: 0xC965, offset: 0x33025, size: 0x8, addend: 0x0, symName: __ZNSt3__117basic_string_viewIcNS_11char_traitsIcEEEC1B8ue170006EPKcm, symObjAddr: 0x49C8, symBinAddr: 0x10000983C, symSize: 0x3C }
  - { offsetInCU: 0xC9AD, offset: 0x3306D, size: 0x8, addend: 0x0, symName: __ZNSt3__117basic_string_viewIcNS_11char_traitsIcEEEC2B8ue170006EPKcm, symObjAddr: 0x4A04, symBinAddr: 0x100009878, symSize: 0x2C }
  - { offsetInCU: 0xC9F4, offset: 0x330B4, size: 0x8, addend: 0x0, symName: __ZNSt3__121__tree_const_iteratorINS_12__value_typeINS_12basic_stringIcNS_11char_traitsIcEENS_9allocatorIcEEEEP4RoomEEPNS_11__tree_nodeISA_PvEElEC2B8ue170006EPNS_15__tree_end_nodeIPNS_16__tree_node_baseISC_EEEE, symObjAddr: 0x4A30, symBinAddr: 0x1000098A4, symSize: 0x20 }
  - { offsetInCU: 0xCA2C, offset: 0x330EC, size: 0x8, addend: 0x0, symName: __ZNKSt3__117__compressed_pairImNS_19__map_value_compareINS_12basic_stringIcNS_11char_traitsIcEENS_9allocatorIcEEEENS_12__value_typeIS7_P4RoomEENS_4lessIS7_EELb1EEEE6secondB8ue170006Ev, symObjAddr: 0x4AB8, symBinAddr: 0x1000098F4, symSize: 0x24 }
  - { offsetInCU: 0xCA51, offset: 0x33111, size: 0x8, addend: 0x0, symName: __ZNKSt3__122__compressed_pair_elemINS_19__map_value_compareINS_12basic_stringIcNS_11char_traitsIcEENS_9allocatorIcEEEENS_12__value_typeIS7_P4RoomEENS_4lessIS7_EELb1EEELi1ELb1EE5__getB8ue170006Ev, symObjAddr: 0x4ADC, symBinAddr: 0x100009918, symSize: 0x14 }
  - { offsetInCU: 0xCA76, offset: 0x33136, size: 0x8, addend: 0x0, symName: __ZNKSt3__121__tree_const_iteratorINS_12__value_typeINS_12basic_stringIcNS_11char_traitsIcEENS_9allocatorIcEEEEP4RoomEEPNS_11__tree_nodeISA_PvEElE8__get_npB8ue170006Ev, symObjAddr: 0x4AF0, symBinAddr: 0x10000992C, symSize: 0x18 }
  - { offsetInCU: 0xCA9B, offset: 0x3315B, size: 0x8, addend: 0x0, symName: __ZNSt3__120__map_const_iteratorINS_21__tree_const_iteratorINS_12__value_typeINS_12basic_stringIcNS_11char_traitsIcEENS_9allocatorIcEEEEP4RoomEEPNS_11__tree_nodeISB_PvEElEEEC2B8ue170006ESG_, symObjAddr: 0x4B08, symBinAddr: 0x100009944, symSize: 0x20 }
  - { offsetInCU: 0xCAD3, offset: 0x33193, size: 0x8, addend: 0x0, symName: __ZNSt3__114pointer_traitsIPKNS_4pairIKNS_12basic_stringIcNS_11char_traitsIcEENS_9allocatorIcEEEEP4RoomEEE10pointer_toB8ue170006ERSC_, symObjAddr: 0x4B28, symBinAddr: 0x100009964, symSize: 0x14 }
  - { offsetInCU: 0xCAF6, offset: 0x331B6, size: 0x8, addend: 0x0, symName: __ZNKSt3__121__tree_const_iteratorINS_12__value_typeINS_12basic_stringIcNS_11char_traitsIcEENS_9allocatorIcEEEEP4RoomEEPNS_11__tree_nodeISA_PvEElEptB8ue170006Ev, symObjAddr: 0x4B3C, symBinAddr: 0x100009978, symSize: 0x2C }
  - { offsetInCU: 0xCB1B, offset: 0x331DB, size: 0x8, addend: 0x0, symName: __ZNSt3__114pointer_traitsIPKNS_12__value_typeINS_12basic_stringIcNS_11char_traitsIcEENS_9allocatorIcEEEEP4RoomEEE10pointer_toB8ue170006ERSB_, symObjAddr: 0x4B68, symBinAddr: 0x1000099A4, symSize: 0x14 }
  - { offsetInCU: 0xCB51, offset: 0x33211, size: 0x8, addend: 0x0, symName: __ZNSt3__16__treeINS_12__value_typeINS_12basic_stringIcNS_11char_traitsIcEENS_9allocatorIcEEEEP4RoomEENS_19__map_value_compareIS7_SA_NS_4lessIS7_EELb1EEENS5_ISA_EEE25__emplace_unique_key_argsIS7_JRKNS_21piecewise_construct_tENS_5tupleIJRKS7_EEENSL_IJEEEEEENS_4pairINS_15__tree_iteratorISA_PNS_11__tree_nodeISA_PvEElEEbEERKT_DpOT0_, symObjAddr: 0x4B7C, symBinAddr: 0x1000099B8, symSize: 0x100 }
  - { offsetInCU: 0xCC27, offset: 0x332E7, size: 0x8, addend: 0x0, symName: __ZNKSt3__115__tree_iteratorINS_12__value_typeINS_12basic_stringIcNS_11char_traitsIcEENS_9allocatorIcEEEEP4RoomEEPNS_11__tree_nodeISA_PvEElEptB8ue170006Ev, symObjAddr: 0x4CAC, symBinAddr: 0x100009AE8, symSize: 0x2C }
  - { offsetInCU: 0xCC4B, offset: 0x3330B, size: 0x8, addend: 0x0, symName: __ZNSt3__16__treeINS_12__value_typeINS_12basic_stringIcNS_11char_traitsIcEENS_9allocatorIcEEEEP4RoomEENS_19__map_value_compareIS7_SA_NS_4lessIS7_EELb1EEENS5_ISA_EEE12__find_equalIS7_EERPNS_16__tree_node_baseIPvEERPNS_15__tree_end_nodeISL_EERKT_, symObjAddr: 0x4CEC, symBinAddr: 0x100009B14, symSize: 0x184 }
  - { offsetInCU: 0xCCB7, offset: 0x33377, size: 0x8, addend: 0x0, symName: __ZNSt3__16__treeINS_12__value_typeINS_12basic_stringIcNS_11char_traitsIcEENS_9allocatorIcEEEEP4RoomEENS_19__map_value_compareIS7_SA_NS_4lessIS7_EELb1EEENS5_ISA_EEE16__construct_nodeIJRKNS_21piecewise_construct_tENS_5tupleIJRKS7_EEENSL_IJEEEEEENS_10unique_ptrINS_11__tree_nodeISA_PvEENS_22__tree_node_destructorINS5_IST_EEEEEEDpOT_, symObjAddr: 0x4E70, symBinAddr: 0x100009C98, symSize: 0x120 }
  - { offsetInCU: 0xCD3F, offset: 0x333FF, size: 0x8, addend: 0x0, symName: __ZNSt3__16__treeINS_12__value_typeINS_12basic_stringIcNS_11char_traitsIcEENS_9allocatorIcEEEEP4RoomEENS_19__map_value_compareIS7_SA_NS_4lessIS7_EELb1EEENS5_ISA_EEE16__insert_node_atEPNS_15__tree_end_nodeIPNS_16__tree_node_baseIPvEEEERSL_SL_, symObjAddr: 0x4F90, symBinAddr: 0x100009DB8, symSize: 0xCC }
  - { offsetInCU: 0xCD94, offset: 0x33454, size: 0x8, addend: 0x0, symName: __ZNKSt3__110unique_ptrINS_11__tree_nodeINS_12__value_typeINS_12basic_stringIcNS_11char_traitsIcEENS_9allocatorIcEEEEP4RoomEEPvEENS_22__tree_node_destructorINS6_ISD_EEEEE3getB8ue170006Ev, symObjAddr: 0x505C, symBinAddr: 0x100009E84, symSize: 0x28 }
  - { offsetInCU: 0xCDB9, offset: 0x33479, size: 0x8, addend: 0x0, symName: __ZNSt3__110unique_ptrINS_11__tree_nodeINS_12__value_typeINS_12basic_stringIcNS_11char_traitsIcEENS_9allocatorIcEEEEP4RoomEEPvEENS_22__tree_node_destructorINS6_ISD_EEEEE7releaseB8ue170006Ev, symObjAddr: 0x5084, symBinAddr: 0x100009EAC, symSize: 0x44 }
  - { offsetInCU: 0xCDEC, offset: 0x334AC, size: 0x8, addend: 0x0, symName: __ZNSt3__110unique_ptrINS_11__tree_nodeINS_12__value_typeINS_12basic_stringIcNS_11char_traitsIcEENS_9allocatorIcEEEEP4RoomEEPvEENS_22__tree_node_destructorINS6_ISD_EEEEED1B8ue170006Ev, symObjAddr: 0x50C8, symBinAddr: 0x100009EF0, symSize: 0x2C }
  - { offsetInCU: 0xCE15, offset: 0x334D5, size: 0x8, addend: 0x0, symName: __ZNSt3__115__tree_iteratorINS_12__value_typeINS_12basic_stringIcNS_11char_traitsIcEENS_9allocatorIcEEEEP4RoomEEPNS_11__tree_nodeISA_PvEElEC1B8ue170006ESE_, symObjAddr: 0x50F4, symBinAddr: 0x100009F1C, symSize: 0x34 }
  - { offsetInCU: 0xCE57, offset: 0x33517, size: 0x8, addend: 0x0, symName: __ZNSt3__14pairINS_15__tree_iteratorINS_12__value_typeINS_12basic_stringIcNS_11char_traitsIcEENS_9allocatorIcEEEEP4RoomEEPNS_11__tree_nodeISB_PvEElEEbEC1B8ue170006ISG_RbLSD_0EEEOT_OT0_, symObjAddr: 0x5128, symBinAddr: 0x100009F50, symSize: 0x3C }
  - { offsetInCU: 0xCEB6, offset: 0x33576, size: 0x8, addend: 0x0, symName: __ZNKSt3__16__treeINS_12__value_typeINS_12basic_stringIcNS_11char_traitsIcEENS_9allocatorIcEEEEP4RoomEENS_19__map_value_compareIS7_SA_NS_4lessIS7_EELb1EEENS5_ISA_EEE10__root_ptrB8ue170006Ev, symObjAddr: 0x5164, symBinAddr: 0x100009F8C, symSize: 0x24 }
  - { offsetInCU: 0xCEDB, offset: 0x3359B, size: 0x8, addend: 0x0, symName: __ZNSt3__16__treeINS_12__value_typeINS_12basic_stringIcNS_11char_traitsIcEENS_9allocatorIcEEEEP4RoomEENS_19__map_value_compareIS7_SA_NS_4lessIS7_EELb1EEENS5_ISA_EEE10value_compB8ue170006Ev, symObjAddr: 0x5188, symBinAddr: 0x100009FB0, symSize: 0x28 }
  - { offsetInCU: 0xCF00, offset: 0x335C0, size: 0x8, addend: 0x0, symName: __ZNSt3__117__compressed_pairImNS_19__map_value_compareINS_12basic_stringIcNS_11char_traitsIcEENS_9allocatorIcEEEENS_12__value_typeIS7_P4RoomEENS_4lessIS7_EELb1EEEE6secondB8ue170006Ev, symObjAddr: 0x51B0, symBinAddr: 0x100009FD8, symSize: 0x24 }
  - { offsetInCU: 0xCF25, offset: 0x335E5, size: 0x8, addend: 0x0, symName: __ZNSt3__122__compressed_pair_elemINS_19__map_value_compareINS_12basic_stringIcNS_11char_traitsIcEENS_9allocatorIcEEEENS_12__value_typeIS7_P4RoomEENS_4lessIS7_EELb1EEELi1ELb1EE5__getB8ue170006Ev, symObjAddr: 0x51D4, symBinAddr: 0x100009FFC, symSize: 0x14 }
  - { offsetInCU: 0xCF4A, offset: 0x3360A, size: 0x8, addend: 0x0, symName: __ZNSt3__116allocator_traitsINS_9allocatorINS_11__tree_nodeINS_12__value_typeINS_12basic_stringIcNS_11char_traitsIcEENS1_IcEEEEP4RoomEEPvEEEEE8allocateB8ue170006ERSE_m, symObjAddr: 0x5210, symBinAddr: 0x10000A010, symSize: 0x2C }
  - { offsetInCU: 0xCF7C, offset: 0x3363C, size: 0x8, addend: 0x0, symName: __ZNSt3__122__tree_node_destructorINS_9allocatorINS_11__tree_nodeINS_12__value_typeINS_12basic_stringIcNS_11char_traitsIcEENS1_IcEEEEP4RoomEEPvEEEEEC1B8ue170006ERSE_b, symObjAddr: 0x523C, symBinAddr: 0x10000A03C, symSize: 0x48 }
  - { offsetInCU: 0xCFC8, offset: 0x33688, size: 0x8, addend: 0x0, symName: __ZNSt3__110unique_ptrINS_11__tree_nodeINS_12__value_typeINS_12basic_stringIcNS_11char_traitsIcEENS_9allocatorIcEEEEP4RoomEEPvEENS_22__tree_node_destructorINS6_ISD_EEEEEC1B8ue170006ILb1EvEEPSD_NS_16__dependent_typeINS_27__unique_ptr_deleter_sfinaeISG_EEXT_EE20__good_rval_ref_typeE, symObjAddr: 0x5284, symBinAddr: 0x10000A084, symSize: 0x3C }
  - { offsetInCU: 0xD019, offset: 0x336D9, size: 0x8, addend: 0x0, symName: __ZNSt3__116allocator_traitsINS_9allocatorINS_11__tree_nodeINS_12__value_typeINS_12basic_stringIcNS_11char_traitsIcEENS1_IcEEEEP4RoomEEPvEEEEE9constructB8ue170006INS_4pairIKS8_SA_EEJRKNS_21piecewise_construct_tENS_5tupleIJRSI_EEENSN_IJEEEEvEEvRSE_PT_DpOT0_, symObjAddr: 0x52C0, symBinAddr: 0x10000A0C0, symSize: 0x44 }
  - { offsetInCU: 0xD098, offset: 0x33758, size: 0x8, addend: 0x0, symName: __ZNKSt3__110unique_ptrINS_11__tree_nodeINS_12__value_typeINS_12basic_stringIcNS_11char_traitsIcEENS_9allocatorIcEEEEP4RoomEEPvEENS_22__tree_node_destructorINS6_ISD_EEEEEptB8ue170006Ev, symObjAddr: 0x5328, symBinAddr: 0x10000A104, symSize: 0x28 }
  - { offsetInCU: 0xD0BD, offset: 0x3377D, size: 0x8, addend: 0x0, symName: __ZNSt3__110unique_ptrINS_11__tree_nodeINS_12__value_typeINS_12basic_stringIcNS_11char_traitsIcEENS_9allocatorIcEEEEP4RoomEEPvEENS_22__tree_node_destructorINS6_ISD_EEEEE11get_deleterB8ue170006Ev, symObjAddr: 0x5350, symBinAddr: 0x10000A12C, symSize: 0x24 }
  - { offsetInCU: 0xD0E2, offset: 0x337A2, size: 0x8, addend: 0x0, symName: __ZNSt3__19allocatorINS_11__tree_nodeINS_12__value_typeINS_12basic_stringIcNS_11char_traitsIcEENS0_IcEEEEP4RoomEEPvEEE8allocateB8ue170006Em, symObjAddr: 0x53AC, symBinAddr: 0x10000A150, symSize: 0x58 }
  - { offsetInCU: 0xD11F, offset: 0x337DF, size: 0x8, addend: 0x0, symName: __ZNSt3__116allocator_traitsINS_9allocatorINS_11__tree_nodeINS_12__value_typeINS_12basic_stringIcNS_11char_traitsIcEENS1_IcEEEEP4RoomEEPvEEEEE8max_sizeB8ue170006ISE_vEEmRKSE_, symObjAddr: 0x5404, symBinAddr: 0x10000A1A8, symSize: 0x24 }
  - { offsetInCU: 0xD14D, offset: 0x3380D, size: 0x8, addend: 0x0, symName: __ZNKSt3__19allocatorINS_11__tree_nodeINS_12__value_typeINS_12basic_stringIcNS_11char_traitsIcEENS0_IcEEEEP4RoomEEPvEEE8max_sizeB8ue170006Ev, symObjAddr: 0x5428, symBinAddr: 0x10000A1CC, symSize: 0x14 }
  - { offsetInCU: 0xD172, offset: 0x33832, size: 0x8, addend: 0x0, symName: __ZNSt3__122__tree_node_destructorINS_9allocatorINS_11__tree_nodeINS_12__value_typeINS_12basic_stringIcNS_11char_traitsIcEENS1_IcEEEEP4RoomEEPvEEEEEC2B8ue170006ERSE_b, symObjAddr: 0x543C, symBinAddr: 0x10000A1E0, symSize: 0x38 }
  - { offsetInCU: 0xD1B8, offset: 0x33878, size: 0x8, addend: 0x0, symName: __ZNSt3__110unique_ptrINS_11__tree_nodeINS_12__value_typeINS_12basic_stringIcNS_11char_traitsIcEENS_9allocatorIcEEEEP4RoomEEPvEENS_22__tree_node_destructorINS6_ISD_EEEEEC2B8ue170006ILb1EvEEPSD_NS_16__dependent_typeINS_27__unique_ptr_deleter_sfinaeISG_EEXT_EE20__good_rval_ref_typeE, symObjAddr: 0x5474, symBinAddr: 0x10000A218, symSize: 0x48 }
  - { offsetInCU: 0xD208, offset: 0x338C8, size: 0x8, addend: 0x0, symName: __ZNSt3__117__compressed_pairIPNS_11__tree_nodeINS_12__value_typeINS_12basic_stringIcNS_11char_traitsIcEENS_9allocatorIcEEEEP4RoomEEPvEENS_22__tree_node_destructorINS6_ISD_EEEEEC1B8ue170006IRSE_SH_EEOT_OT0_, symObjAddr: 0x54BC, symBinAddr: 0x10000A260, symSize: 0x3C }
  - { offsetInCU: 0xD25F, offset: 0x3391F, size: 0x8, addend: 0x0, symName: __ZNSt3__117__compressed_pairIPNS_11__tree_nodeINS_12__value_typeINS_12basic_stringIcNS_11char_traitsIcEENS_9allocatorIcEEEEP4RoomEEPvEENS_22__tree_node_destructorINS6_ISD_EEEEEC2B8ue170006IRSE_SH_EEOT_OT0_, symObjAddr: 0x54F8, symBinAddr: 0x10000A29C, symSize: 0x48 }
  - { offsetInCU: 0xD2B7, offset: 0x33977, size: 0x8, addend: 0x0, symName: __ZNSt3__122__compressed_pair_elemIPNS_11__tree_nodeINS_12__value_typeINS_12basic_stringIcNS_11char_traitsIcEENS_9allocatorIcEEEEP4RoomEEPvEELi0ELb0EEC2B8ue170006IRSE_vEEOT_, symObjAddr: 0x5540, symBinAddr: 0x10000A2E4, symSize: 0x24 }
  - { offsetInCU: 0xD2F8, offset: 0x339B8, size: 0x8, addend: 0x0, symName: __ZNSt3__122__compressed_pair_elemINS_22__tree_node_destructorINS_9allocatorINS_11__tree_nodeINS_12__value_typeINS_12basic_stringIcNS_11char_traitsIcEENS2_IcEEEEP4RoomEEPvEEEEEELi1ELb0EEC2B8ue170006ISG_vEEOT_, symObjAddr: 0x5564, symBinAddr: 0x10000A308, symSize: 0x24 }
  - { offsetInCU: 0xD339, offset: 0x339F9, size: 0x8, addend: 0x0, symName: __ZNSt3__19allocatorINS_11__tree_nodeINS_12__value_typeINS_12basic_stringIcNS_11char_traitsIcEENS0_IcEEEEP4RoomEEPvEEE9constructB8ue170006INS_4pairIKS7_S9_EEJRKNS_21piecewise_construct_tENS_5tupleIJRSG_EEENSL_IJEEEEEEvPT_DpOT0_, symObjAddr: 0x5588, symBinAddr: 0x10000A32C, symSize: 0x44 }
  - { offsetInCU: 0xD3B3, offset: 0x33A73, size: 0x8, addend: 0x0, symName: __ZNSt3__14pairIKNS_12basic_stringIcNS_11char_traitsIcEENS_9allocatorIcEEEEP4RoomEC1B8ue170006IJRS7_EJEEENS_21piecewise_construct_tENS_5tupleIJDpT_EEENSE_IJDpT0_EEE, symObjAddr: 0x55CC, symBinAddr: 0x10000A370, symSize: 0x3C }
  - { offsetInCU: 0xD41A, offset: 0x33ADA, size: 0x8, addend: 0x0, symName: __ZNSt3__14pairIKNS_12basic_stringIcNS_11char_traitsIcEENS_9allocatorIcEEEEP4RoomEC1B8ue170006IJRS7_EJEJLm0EEJEEENS_21piecewise_construct_tERNS_5tupleIJDpT_EEERNSE_IJDpT0_EEENS_15__tuple_indicesIJXspT1_EEEENSN_IJXspT2_EEEE, symObjAddr: 0x5608, symBinAddr: 0x10000A3AC, symSize: 0x3C }
  - { offsetInCU: 0xD4AA, offset: 0x33B6A, size: 0x8, addend: 0x0, symName: __ZNSt3__14pairIKNS_12basic_stringIcNS_11char_traitsIcEENS_9allocatorIcEEEEP4RoomEC2B8ue170006IJRS7_EJEJLm0EEJEEENS_21piecewise_construct_tERNS_5tupleIJDpT_EEERNSE_IJDpT0_EEENS_15__tuple_indicesIJXspT1_EEEENSN_IJXspT2_EEEE, symObjAddr: 0x5644, symBinAddr: 0x10000A3E8, symSize: 0x48 }
  - { offsetInCU: 0xD53A, offset: 0x33BFA, size: 0x8, addend: 0x0, symName: __ZNSt3__112__tuple_leafILm0ERKNS_12basic_stringIcNS_11char_traitsIcEENS_9allocatorIcEEEELb0EE3getB8ue170006Ev, symObjAddr: 0x56B0, symBinAddr: 0x10000A454, symSize: 0x18 }
  - { offsetInCU: 0xD55F, offset: 0x33C1F, size: 0x8, addend: 0x0, symName: __ZNKSt3__117__compressed_pairIPNS_11__tree_nodeINS_12__value_typeINS_12basic_stringIcNS_11char_traitsIcEENS_9allocatorIcEEEEP4RoomEEPvEENS_22__tree_node_destructorINS6_ISD_EEEEE5firstB8ue170006Ev, symObjAddr: 0x56C8, symBinAddr: 0x10000A46C, symSize: 0x24 }
  - { offsetInCU: 0xD584, offset: 0x33C44, size: 0x8, addend: 0x0, symName: __ZNKSt3__122__compressed_pair_elemIPNS_11__tree_nodeINS_12__value_typeINS_12basic_stringIcNS_11char_traitsIcEENS_9allocatorIcEEEEP4RoomEEPvEELi0ELb0EE5__getB8ue170006Ev, symObjAddr: 0x56EC, symBinAddr: 0x10000A490, symSize: 0x14 }
  - { offsetInCU: 0xD5A9, offset: 0x33C69, size: 0x8, addend: 0x0, symName: __ZNSt3__117__compressed_pairIPNS_11__tree_nodeINS_12__value_typeINS_12basic_stringIcNS_11char_traitsIcEENS_9allocatorIcEEEEP4RoomEEPvEENS_22__tree_node_destructorINS6_ISD_EEEEE6secondB8ue170006Ev, symObjAddr: 0x5700, symBinAddr: 0x10000A4A4, symSize: 0x28 }
  - { offsetInCU: 0xD5CE, offset: 0x33C8E, size: 0x8, addend: 0x0, symName: __ZNSt3__122__compressed_pair_elemINS_22__tree_node_destructorINS_9allocatorINS_11__tree_nodeINS_12__value_typeINS_12basic_stringIcNS_11char_traitsIcEENS2_IcEEEEP4RoomEEPvEEEEEELi1ELb0EE5__getB8ue170006Ev, symObjAddr: 0x5728, symBinAddr: 0x10000A4CC, symSize: 0x14 }
  - { offsetInCU: 0xD5F3, offset: 0x33CB3, size: 0x8, addend: 0x0, symName: __ZNSt3__16__treeINS_12__value_typeINS_12basic_stringIcNS_11char_traitsIcEENS_9allocatorIcEEEEP4RoomEENS_19__map_value_compareIS7_SA_NS_4lessIS7_EELb1EEENS5_ISA_EEE4sizeB8ue170006Ev, symObjAddr: 0x5A68, symBinAddr: 0x10000A80C, symSize: 0x28 }
  - { offsetInCU: 0xD618, offset: 0x33CD8, size: 0x8, addend: 0x0, symName: __ZNKSt3__116__tree_node_baseIPvE15__parent_unsafeB8ue170006Ev, symObjAddr: 0x5A90, symBinAddr: 0x10000A834, symSize: 0x18 }
  - { offsetInCU: 0xD63D, offset: 0x33CFD, size: 0x8, addend: 0x0, symName: __ZNSt3__116__tree_node_baseIPvE12__set_parentB8ue170006EPS2_, symObjAddr: 0x5C78, symBinAddr: 0x10000AA1C, symSize: 0x20 }
  - { offsetInCU: 0xD671, offset: 0x33D31, size: 0x8, addend: 0x0, symName: __ZNSt3__117__compressed_pairImNS_19__map_value_compareINS_12basic_stringIcNS_11char_traitsIcEENS_9allocatorIcEEEENS_12__value_typeIS7_P4RoomEENS_4lessIS7_EELb1EEEE5firstB8ue170006Ev, symObjAddr: 0x5C98, symBinAddr: 0x10000AA3C, symSize: 0x24 }
  - { offsetInCU: 0xD696, offset: 0x33D56, size: 0x8, addend: 0x0, symName: __ZNSt3__122__compressed_pair_elemImLi0ELb0EE5__getB8ue170006Ev, symObjAddr: 0x5CBC, symBinAddr: 0x10000AA60, symSize: 0x14 }
  - { offsetInCU: 0xD6BB, offset: 0x33D7B, size: 0x8, addend: 0x0, symName: __ZNSt3__117__compressed_pairIPNS_11__tree_nodeINS_12__value_typeINS_12basic_stringIcNS_11char_traitsIcEENS_9allocatorIcEEEEP4RoomEEPvEENS_22__tree_node_destructorINS6_ISD_EEEEE5firstB8ue170006Ev, symObjAddr: 0x5CD0, symBinAddr: 0x10000AA74, symSize: 0x24 }
  - { offsetInCU: 0xD6E0, offset: 0x33DA0, size: 0x8, addend: 0x0, symName: __ZNSt3__122__compressed_pair_elemIPNS_11__tree_nodeINS_12__value_typeINS_12basic_stringIcNS_11char_traitsIcEENS_9allocatorIcEEEEP4RoomEEPvEELi0ELb0EE5__getB8ue170006Ev, symObjAddr: 0x5CF4, symBinAddr: 0x10000AA98, symSize: 0x14 }
  - { offsetInCU: 0xD704, offset: 0x33DC4, size: 0x8, addend: 0x0, symName: __ZNSt3__110unique_ptrINS_11__tree_nodeINS_12__value_typeINS_12basic_stringIcNS_11char_traitsIcEENS_9allocatorIcEEEEP4RoomEEPvEENS_22__tree_node_destructorINS6_ISD_EEEEED2B8ue170006Ev, symObjAddr: 0x5D08, symBinAddr: 0x10000AAAC, symSize: 0x30 }
  - { offsetInCU: 0xD72E, offset: 0x33DEE, size: 0x8, addend: 0x0, symName: __ZNSt3__110unique_ptrINS_11__tree_nodeINS_12__value_typeINS_12basic_stringIcNS_11char_traitsIcEENS_9allocatorIcEEEEP4RoomEEPvEENS_22__tree_node_destructorINS6_ISD_EEEEE5resetB8ue170006EPSD_, symObjAddr: 0x5D38, symBinAddr: 0x10000AADC, symSize: 0x78 }
  - { offsetInCU: 0xD771, offset: 0x33E31, size: 0x8, addend: 0x0, symName: __ZNSt3__122__tree_node_destructorINS_9allocatorINS_11__tree_nodeINS_12__value_typeINS_12basic_stringIcNS_11char_traitsIcEENS1_IcEEEEP4RoomEEPvEEEEEclB8ue170006EPSD_, symObjAddr: 0x5DB0, symBinAddr: 0x10000AB54, symSize: 0x98 }
  - { offsetInCU: 0xD7A5, offset: 0x33E65, size: 0x8, addend: 0x0, symName: __ZNSt3__115__tree_iteratorINS_12__value_typeINS_12basic_stringIcNS_11char_traitsIcEENS_9allocatorIcEEEEP4RoomEEPNS_11__tree_nodeISA_PvEElEC2B8ue170006ESE_, symObjAddr: 0x5F3C, symBinAddr: 0x10000ABEC, symSize: 0x20 }
  - { offsetInCU: 0xD7DD, offset: 0x33E9D, size: 0x8, addend: 0x0, symName: __ZNSt3__14pairINS_15__tree_iteratorINS_12__value_typeINS_12basic_stringIcNS_11char_traitsIcEENS_9allocatorIcEEEEP4RoomEEPNS_11__tree_nodeISB_PvEElEEbEC2B8ue170006ISG_RbLSD_0EEEOT_OT0_, symObjAddr: 0x5F5C, symBinAddr: 0x10000AC0C, symSize: 0x38 }
  - { offsetInCU: 0xD83A, offset: 0x33EFA, size: 0x8, addend: 0x0, symName: __ZNSt3__15tupleIJRKNS_12basic_stringIcNS_11char_traitsIcEENS_9allocatorIcEEEEEEC1B8ue170006INS_4_AndELi0EEES8_, symObjAddr: 0x5F94, symBinAddr: 0x10000AC44, symSize: 0x34 }
  - { offsetInCU: 0xD882, offset: 0x33F42, size: 0x8, addend: 0x0, symName: __ZNSt3__15tupleIJRKNS_12basic_stringIcNS_11char_traitsIcEENS_9allocatorIcEEEEEEC2B8ue170006INS_4_AndELi0EEES8_, symObjAddr: 0x5FC8, symBinAddr: 0x10000AC78, symSize: 0x34 }
  - { offsetInCU: 0xD8CA, offset: 0x33F8A, size: 0x8, addend: 0x0, symName: __ZNSt3__112__tuple_implINS_15__tuple_indicesIJLm0EEEEJRKNS_12basic_stringIcNS_11char_traitsIcEENS_9allocatorIcEEEEEEC1B8ue170006IJLm0EEJSA_EJEJEJSA_EEENS1_IJXspT_EEEENS_13__tuple_typesIJDpT0_EEENS1_IJXspT1_EEEENSE_IJDpT2_EEEDpOT3_, symObjAddr: 0x5FFC, symBinAddr: 0x10000ACAC, symSize: 0x34 }
  - { offsetInCU: 0xD95F, offset: 0x3401F, size: 0x8, addend: 0x0, symName: __ZNSt3__112__tuple_implINS_15__tuple_indicesIJLm0EEEEJRKNS_12basic_stringIcNS_11char_traitsIcEENS_9allocatorIcEEEEEEC2B8ue170006IJLm0EEJSA_EJEJEJSA_EEENS1_IJXspT_EEEENS_13__tuple_typesIJDpT0_EEENS1_IJXspT1_EEEENSE_IJDpT2_EEEDpOT3_, symObjAddr: 0x6030, symBinAddr: 0x10000ACE0, symSize: 0x34 }
  - { offsetInCU: 0xD9F5, offset: 0x340B5, size: 0x8, addend: 0x0, symName: __ZNSt3__112__tuple_leafILm0ERKNS_12basic_stringIcNS_11char_traitsIcEENS_9allocatorIcEEEELb0EEC2B8ue170006IS8_vEEOT_, symObjAddr: 0x6064, symBinAddr: 0x10000AD14, symSize: 0x20 }
  - { offsetInCU: 0xDA37, offset: 0x340F7, size: 0x8, addend: 0x0, symName: __ZNSt3__114pointer_traitsIPNS_12__value_typeINS_12basic_stringIcNS_11char_traitsIcEENS_9allocatorIcEEEEP4RoomEEE10pointer_toB8ue170006ERSA_, symObjAddr: 0x6084, symBinAddr: 0x10000AD34, symSize: 0x14 }
  - { offsetInCU: 0xDA5A, offset: 0x3411A, size: 0x8, addend: 0x0, symName: __ZNKSt3__115__tree_iteratorINS_12__value_typeINS_12basic_stringIcNS_11char_traitsIcEENS_9allocatorIcEEEEP4RoomEEPNS_11__tree_nodeISA_PvEElE8__get_npB8ue170006Ev, symObjAddr: 0x6098, symBinAddr: 0x10000AD48, symSize: 0x18 }
...
